
system:     file format elf32-i386


Disassembly of section .text.main:

00010000 <main-0x10>:
   10000:	18 66 90             	sbb    %ah,-0x70(%esi)
   10003:	66 90                	xchg   %ax,%ax
   10005:	66 90                	xchg   %ax,%ax
   10007:	66 90                	xchg   %ax,%ax
   10009:	66 90                	xchg   %ax,%ax
   1000b:	66 90                	xchg   %ax,%ax
   1000d:	66 90                	xchg   %ax,%ax
   1000f:	90                   	nop

00010010 <main>:
   10010:	8d 4c 24 04          	lea    0x4(%esp),%ecx
   10014:	83 e4 f0             	and    $0xfffffff0,%esp
   10017:	ff 71 fc             	push   -0x4(%ecx)
   1001a:	55                   	push   %ebp
   1001b:	89 e5                	mov    %esp,%ebp
   1001d:	51                   	push   %ecx
   1001e:	83 ec 04             	sub    $0x4,%esp
   10021:	e8 7a 0f 00 00       	call   10fa0 <set_eflags>
   10026:	b8 18 00 00 00       	mov    $0x18,%eax
   1002b:	fc                   	cld    
   1002c:	8e d8                	mov    %eax,%ds
   1002e:	8e c0                	mov    %eax,%es
   10030:	8e e0                	mov    %eax,%fs
   10032:	8e e8                	mov    %eax,%gs
   10034:	8e d0                	mov    %eax,%ss
   10036:	bc ec 7f 01 00       	mov    $0x17fec,%esp
   1003b:	83 ec 0c             	sub    $0xc,%esp
   1003e:	68 a9 1a 01 00       	push   $0x11aa9
   10043:	e8 68 05 00 00       	call   105b0 <printk>
   10048:	e8 43 0a 00 00       	call   10a90 <setGdt>
   1004d:	e8 3e 02 00 00       	call   10290 <setIdt>
   10052:	e8 89 0a 00 00       	call   10ae0 <setTSS>
   10057:	e8 94 09 00 00       	call   109f0 <init_mm>
   1005c:	e8 1f 1a 00 00       	call   11a80 <monoprocess_init_addr_space>
   10061:	e8 4a 06 00 00       	call   106b0 <init_sched>
   10066:	e8 25 06 00 00       	call   10690 <init_idle>
   1006b:	e8 30 06 00 00       	call   106a0 <init_task1>
   10070:	a1 e4 29 01 00       	mov    0x129e4,%eax
   10075:	83 c4 0c             	add    $0xc,%esp
   10078:	ff 30                	push   (%eax)
   1007a:	a1 e8 29 01 00       	mov    0x129e8,%eax
   1007f:	68 00 00 10 00       	push   $0x100000
   10084:	8b 00                	mov    (%eax),%eax
   10086:	05 00 00 01 00       	add    $0x10000,%eax
   1008b:	50                   	push   %eax
   1008c:	e8 ff 0c 00 00       	call   10d90 <copy_data>
   10091:	c7 04 24 bc 1a 01 00 	movl   $0x11abc,(%esp)
   10098:	e8 13 05 00 00       	call   105b0 <printk>
   1009d:	e8 8e 0f 00 00       	call   11030 <enable_int>
   100a2:	58                   	pop    %eax
   100a3:	ff 35 ec 29 01 00    	push   0x129ec
   100a9:	6a 23                	push   $0x23
   100ab:	68 f0 3f 11 00       	push   $0x113ff0
   100b0:	6a 2b                	push   $0x2b
   100b2:	6a 2b                	push   $0x2b
   100b4:	e8 37 0f 00 00       	call   10ff0 <return_gate>
   100b9:	8b 4d fc             	mov    -0x4(%ebp),%ecx
   100bc:	31 c0                	xor    %eax,%eax
   100be:	c9                   	leave  
   100bf:	8d 61 fc             	lea    -0x4(%ecx),%esp
   100c2:	c3                   	ret    

Disassembly of section .text:

000100d0 <long_to_char.part.0>:
   100d0:	85 c0                	test   %eax,%eax
   100d2:	74 74                	je     10148 <long_to_char.part.0+0x78>
   100d4:	55                   	push   %ebp
   100d5:	89 e5                	mov    %esp,%ebp
   100d7:	57                   	push   %edi
   100d8:	89 c7                	mov    %eax,%edi
   100da:	56                   	push   %esi
   100db:	31 f6                	xor    %esi,%esi
   100dd:	53                   	push   %ebx
   100de:	83 ec 04             	sub    $0x4,%esp
   100e1:	89 55 f0             	mov    %edx,-0x10(%ebp)
   100e4:	8d 74 26 00          	lea    0x0(%esi,%eiz,1),%esi
   100e8:	89 f9                	mov    %edi,%ecx
   100ea:	89 f0                	mov    %esi,%eax
   100ec:	8d 76 01             	lea    0x1(%esi),%esi
   100ef:	83 e1 0f             	and    $0xf,%ecx
   100f2:	8d 59 30             	lea    0x30(%ecx),%ebx
   100f5:	83 f9 09             	cmp    $0x9,%ecx
   100f8:	8d 51 37             	lea    0x37(%ecx),%edx
   100fb:	0f 4e d3             	cmovle %ebx,%edx
   100fe:	8b 5d f0             	mov    -0x10(%ebp),%ebx
   10101:	c1 ef 04             	shr    $0x4,%edi
   10104:	88 54 33 ff          	mov    %dl,-0x1(%ebx,%esi,1)
   10108:	75 de                	jne    100e8 <long_to_char.part.0+0x18>
   1010a:	c6 04 33 00          	movb   $0x0,(%ebx,%esi,1)
   1010e:	89 da                	mov    %ebx,%edx
   10110:	85 c0                	test   %eax,%eax
   10112:	74 26                	je     1013a <long_to_char.part.0+0x6a>
   10114:	31 c9                	xor    %ecx,%ecx
   10116:	8d b4 26 00 00 00 00 	lea    0x0(%esi,%eiz,1),%esi
   1011d:	8d 76 00             	lea    0x0(%esi),%esi
   10120:	0f b6 3c 0a          	movzbl (%edx,%ecx,1),%edi
   10124:	0f b6 1c 02          	movzbl (%edx,%eax,1),%ebx
   10128:	88 1c 0a             	mov    %bl,(%edx,%ecx,1)
   1012b:	89 fb                	mov    %edi,%ebx
   1012d:	83 c1 01             	add    $0x1,%ecx
   10130:	88 1c 02             	mov    %bl,(%edx,%eax,1)
   10133:	83 e8 01             	sub    $0x1,%eax
   10136:	39 c1                	cmp    %eax,%ecx
   10138:	7c e6                	jl     10120 <long_to_char.part.0+0x50>
   1013a:	83 c4 04             	add    $0x4,%esp
   1013d:	5b                   	pop    %ebx
   1013e:	5e                   	pop    %esi
   1013f:	5f                   	pop    %edi
   10140:	5d                   	pop    %ebp
   10141:	c3                   	ret    
   10142:	8d b6 00 00 00 00    	lea    0x0(%esi),%esi
   10148:	c6 02 00             	movb   $0x0,(%edx)
   1014b:	c3                   	ret    
   1014c:	8d 74 26 00          	lea    0x0(%esi,%eiz,1),%esi

00010150 <setInterruptHandler>:
   10150:	55                   	push   %ebp
   10151:	89 e5                	mov    %esp,%ebp
   10153:	0f b7 45 10          	movzwl 0x10(%ebp),%eax
   10157:	8b 55 08             	mov    0x8(%ebp),%edx
   1015a:	8b 4d 0c             	mov    0xc(%ebp),%ecx
   1015d:	5d                   	pop    %ebp
   1015e:	66 c7 04 d5 a2 2a 01 	movw   $0x10,0x12aa2(,%edx,8)
   10165:	00 10 00 
   10168:	c1 e0 0d             	shl    $0xd,%eax
   1016b:	66 89 0c d5 a0 2a 01 	mov    %cx,0x12aa0(,%edx,8)
   10172:	00 
   10173:	66 0d 00 8e          	or     $0x8e00,%ax
   10177:	c1 e9 10             	shr    $0x10,%ecx
   1017a:	66 89 04 d5 a4 2a 01 	mov    %ax,0x12aa4(,%edx,8)
   10181:	00 
   10182:	66 89 0c d5 a6 2a 01 	mov    %cx,0x12aa6(,%edx,8)
   10189:	00 
   1018a:	c3                   	ret    
   1018b:	8d 74 26 00          	lea    0x0(%esi,%eiz,1),%esi
   1018f:	90                   	nop

00010190 <setTrapHandler>:
   10190:	55                   	push   %ebp
   10191:	89 e5                	mov    %esp,%ebp
   10193:	0f b7 45 10          	movzwl 0x10(%ebp),%eax
   10197:	8b 55 08             	mov    0x8(%ebp),%edx
   1019a:	8b 4d 0c             	mov    0xc(%ebp),%ecx
   1019d:	5d                   	pop    %ebp
   1019e:	66 c7 04 d5 a2 2a 01 	movw   $0x10,0x12aa2(,%edx,8)
   101a5:	00 10 00 
   101a8:	c1 e0 0d             	shl    $0xd,%eax
   101ab:	66 89 0c d5 a0 2a 01 	mov    %cx,0x12aa0(,%edx,8)
   101b2:	00 
   101b3:	66 0d 00 8e          	or     $0x8e00,%ax
   101b7:	c1 e9 10             	shr    $0x10,%ecx
   101ba:	66 89 04 d5 a4 2a 01 	mov    %ax,0x12aa4(,%edx,8)
   101c1:	00 
   101c2:	66 89 0c d5 a6 2a 01 	mov    %cx,0x12aa6(,%edx,8)
   101c9:	00 
   101ca:	c3                   	ret    
   101cb:	8d 74 26 00          	lea    0x0(%esi,%eiz,1),%esi
   101cf:	90                   	nop

000101d0 <long_to_char>:
   101d0:	55                   	push   %ebp
   101d1:	89 e5                	mov    %esp,%ebp
   101d3:	53                   	push   %ebx
   101d4:	8b 45 08             	mov    0x8(%ebp),%eax
   101d7:	8b 5d 0c             	mov    0xc(%ebp),%ebx
   101da:	85 c0                	test   %eax,%eax
   101dc:	74 12                	je     101f0 <long_to_char+0x20>
   101de:	89 da                	mov    %ebx,%edx
   101e0:	e8 eb fe ff ff       	call   100d0 <long_to_char.part.0>
   101e5:	89 d8                	mov    %ebx,%eax
   101e7:	8b 5d fc             	mov    -0x4(%ebp),%ebx
   101ea:	c9                   	leave  
   101eb:	c3                   	ret    
   101ec:	8d 74 26 00          	lea    0x0(%esi,%eiz,1),%esi
   101f0:	b8 30 00 00 00       	mov    $0x30,%eax
   101f5:	66 89 03             	mov    %ax,(%ebx)
   101f8:	89 d8                	mov    %ebx,%eax
   101fa:	8b 5d fc             	mov    -0x4(%ebp),%ebx
   101fd:	c9                   	leave  
   101fe:	c3                   	ret    
   101ff:	90                   	nop

00010200 <clk_routine>:
   10200:	83 05 80 2a 01 00 01 	addl   $0x1,0x12a80
   10207:	e9 a4 0f 00 00       	jmp    111b0 <zeos_show_clock>
   1020c:	8d 74 26 00          	lea    0x0(%esi,%eiz,1),%esi

00010210 <kbd_routine>:
   10210:	55                   	push   %ebp
   10211:	89 e5                	mov    %esp,%ebp
   10213:	83 ec 14             	sub    $0x14,%esp
   10216:	6a 60                	push   $0x60
   10218:	e8 a3 02 00 00       	call   104c0 <inb>
   1021d:	83 c4 10             	add    $0x10,%esp
   10220:	a8 80                	test   $0x80,%al
   10222:	74 0c                	je     10230 <kbd_routine+0x20>
   10224:	c9                   	leave  
   10225:	c3                   	ret    
   10226:	8d b4 26 00 00 00 00 	lea    0x0(%esi,%eiz,1),%esi
   1022d:	8d 76 00             	lea    0x0(%esi),%esi
   10230:	83 e0 7f             	and    $0x7f,%eax
   10233:	83 ec 0c             	sub    $0xc,%esp
   10236:	0f be 80 00 2a 01 00 	movsbl 0x12a00(%eax),%eax
   1023d:	50                   	push   %eax
   1023e:	e8 8d 02 00 00       	call   104d0 <printc>
   10243:	83 c4 10             	add    $0x10,%esp
   10246:	c9                   	leave  
   10247:	c3                   	ret    
   10248:	8d b4 26 00 00 00 00 	lea    0x0(%esi,%eiz,1),%esi
   1024f:	90                   	nop

00010250 <pf_routine>:
   10250:	55                   	push   %ebp
   10251:	89 e5                	mov    %esp,%ebp
   10253:	53                   	push   %ebx
   10254:	83 ec 24             	sub    $0x24,%esp
   10257:	8b 45 0c             	mov    0xc(%ebp),%eax
   1025a:	85 c0                	test   %eax,%eax
   1025c:	74 24                	je     10282 <pf_routine+0x32>
   1025e:	8d 5d e3             	lea    -0x1d(%ebp),%ebx
   10261:	89 da                	mov    %ebx,%edx
   10263:	e8 68 fe ff ff       	call   100d0 <long_to_char.part.0>
   10268:	83 ec 0c             	sub    $0xc,%esp
   1026b:	68 50 27 01 00       	push   $0x12750
   10270:	e8 3b 03 00 00       	call   105b0 <printk>
   10275:	89 1c 24             	mov    %ebx,(%esp)
   10278:	e8 33 03 00 00       	call   105b0 <printk>
   1027d:	83 c4 10             	add    $0x10,%esp
   10280:	eb fe                	jmp    10280 <pf_routine+0x30>
   10282:	66 c7 45 e3 30 00    	movw   $0x30,-0x1d(%ebp)
   10288:	8d 5d e3             	lea    -0x1d(%ebp),%ebx
   1028b:	eb db                	jmp    10268 <pf_routine+0x18>
   1028d:	8d 76 00             	lea    0x0(%esi),%esi

00010290 <setIdt>:
   10290:	55                   	push   %ebp
   10291:	b8 ff 07 00 00       	mov    $0x7ff,%eax
   10296:	89 e5                	mov    %esp,%ebp
   10298:	83 ec 08             	sub    $0x8,%esp
   1029b:	66 a3 84 2a 01 00    	mov    %ax,0x12a84
   102a1:	c7 05 86 2a 01 00 a0 	movl   $0x12aa0,0x12a86
   102a8:	2a 01 00 
   102ab:	e8 b0 13 00 00       	call   11660 <set_handlers>
   102b0:	b8 a6 03 01 00       	mov    $0x103a6,%eax
   102b5:	83 ec 08             	sub    $0x8,%esp
   102b8:	c7 05 12 2b 01 00 10 	movl   $0x8e000010,0x12b12
   102bf:	00 00 8e 
   102c2:	66 a3 10 2b 01 00    	mov    %ax,0x12b10
   102c8:	c1 e8 10             	shr    $0x10,%eax
   102cb:	66 a3 16 2b 01 00    	mov    %ax,0x12b16
   102d1:	b8 4c 03 01 00       	mov    $0x1034c,%eax
   102d6:	68 74 01 00 00       	push   $0x174
   102db:	66 a3 a0 2b 01 00    	mov    %ax,0x12ba0
   102e1:	c1 e8 10             	shr    $0x10,%eax
   102e4:	6a 10                	push   $0x10
   102e6:	66 a3 a6 2b 01 00    	mov    %ax,0x12ba6
   102ec:	b8 79 03 01 00       	mov    $0x10379,%eax
   102f1:	66 a3 a8 2b 01 00    	mov    %ax,0x12ba8
   102f7:	c1 e8 10             	shr    $0x10,%eax
   102fa:	c7 05 a2 2b 01 00 10 	movl   $0x8e000010,0x12ba2
   10301:	00 00 8e 
   10304:	c7 05 aa 2b 01 00 10 	movl   $0x8e000010,0x12baa
   1030b:	00 00 8e 
   1030e:	66 a3 ae 2b 01 00    	mov    %ax,0x12bae
   10314:	e8 f3 00 00 00       	call   1040c <writeMSR>
   10319:	5a                   	pop    %edx
   1031a:	59                   	pop    %ecx
   1031b:	68 75 01 00 00       	push   $0x175
   10320:	68 00 60 01 00       	push   $0x16000
   10325:	e8 e2 00 00 00       	call   1040c <writeMSR>
   1032a:	58                   	pop    %eax
   1032b:	5a                   	pop    %edx
   1032c:	68 76 01 00 00       	push   $0x176
   10331:	68 ab 03 01 00       	push   $0x103ab
   10336:	e8 d1 00 00 00       	call   1040c <writeMSR>
   1033b:	c7 04 24 84 2a 01 00 	movl   $0x12a84,(%esp)
   10342:	e8 69 0c 00 00       	call   10fb0 <set_idt_reg>
   10347:	83 c4 10             	add    $0x10,%esp
   1034a:	c9                   	leave  
   1034b:	c3                   	ret    

0001034c <clk_handler>:
   1034c:	0f a8                	push   %gs
   1034e:	0f a0                	push   %fs
   10350:	06                   	push   %es
   10351:	1e                   	push   %ds
   10352:	50                   	push   %eax
   10353:	55                   	push   %ebp
   10354:	57                   	push   %edi
   10355:	56                   	push   %esi
   10356:	53                   	push   %ebx
   10357:	51                   	push   %ecx
   10358:	52                   	push   %edx
   10359:	ba 18 00 00 00       	mov    $0x18,%edx
   1035e:	8e da                	mov    %edx,%ds
   10360:	8e c2                	mov    %edx,%es
   10362:	b0 20                	mov    $0x20,%al
   10364:	e6 20                	out    %al,$0x20
   10366:	e8 95 fe ff ff       	call   10200 <clk_routine>
   1036b:	5a                   	pop    %edx
   1036c:	59                   	pop    %ecx
   1036d:	5b                   	pop    %ebx
   1036e:	5e                   	pop    %esi
   1036f:	5f                   	pop    %edi
   10370:	5d                   	pop    %ebp
   10371:	58                   	pop    %eax
   10372:	1f                   	pop    %ds
   10373:	07                   	pop    %es
   10374:	0f a1                	pop    %fs
   10376:	0f a9                	pop    %gs
   10378:	cf                   	iret   

00010379 <kbd_handler>:
   10379:	0f a8                	push   %gs
   1037b:	0f a0                	push   %fs
   1037d:	06                   	push   %es
   1037e:	1e                   	push   %ds
   1037f:	50                   	push   %eax
   10380:	55                   	push   %ebp
   10381:	57                   	push   %edi
   10382:	56                   	push   %esi
   10383:	53                   	push   %ebx
   10384:	51                   	push   %ecx
   10385:	52                   	push   %edx
   10386:	ba 18 00 00 00       	mov    $0x18,%edx
   1038b:	8e da                	mov    %edx,%ds
   1038d:	8e c2                	mov    %edx,%es
   1038f:	e8 7c fe ff ff       	call   10210 <kbd_routine>
   10394:	b0 20                	mov    $0x20,%al
   10396:	e6 20                	out    %al,$0x20
   10398:	5a                   	pop    %edx
   10399:	59                   	pop    %ecx
   1039a:	5b                   	pop    %ebx
   1039b:	5e                   	pop    %esi
   1039c:	5f                   	pop    %edi
   1039d:	5d                   	pop    %ebp
   1039e:	58                   	pop    %eax
   1039f:	1f                   	pop    %ds
   103a0:	07                   	pop    %es
   103a1:	0f a1                	pop    %fs
   103a3:	0f a9                	pop    %gs
   103a5:	cf                   	iret   

000103a6 <pf_handler>:
   103a6:	e8 a5 fe ff ff       	call   10250 <pf_routine>

000103ab <syscall_handler>:
   103ab:	6a 2b                	push   $0x2b
   103ad:	55                   	push   %ebp
   103ae:	9c                   	pushf  
   103af:	6a 23                	push   $0x23
   103b1:	ff 75 04             	push   0x4(%ebp)
   103b4:	0f a8                	push   %gs
   103b6:	0f a0                	push   %fs
   103b8:	06                   	push   %es
   103b9:	1e                   	push   %ds
   103ba:	50                   	push   %eax
   103bb:	55                   	push   %ebp
   103bc:	57                   	push   %edi
   103bd:	56                   	push   %esi
   103be:	53                   	push   %ebx
   103bf:	51                   	push   %ecx
   103c0:	52                   	push   %edx
   103c1:	ba 18 00 00 00       	mov    $0x18,%edx
   103c6:	8e da                	mov    %edx,%ds
   103c8:	8e c2                	mov    %edx,%es
   103ca:	83 f8 00             	cmp    $0x0,%eax
   103cd:	7c 10                	jl     103df <sysenter_err>
   103cf:	3d 0b 00 00 00       	cmp    $0xb,%eax
   103d4:	7f 09                	jg     103df <sysenter_err>
   103d6:	ff 14 85 21 04 01 00 	call   *0x10421(,%eax,4)
   103dd:	eb 05                	jmp    103e4 <sysenter_fin>

000103df <sysenter_err>:
   103df:	b8 da ff ff ff       	mov    $0xffffffda,%eax

000103e4 <sysenter_fin>:
   103e4:	89 44 24 18          	mov    %eax,0x18(%esp)
   103e8:	5a                   	pop    %edx
   103e9:	59                   	pop    %ecx
   103ea:	5b                   	pop    %ebx
   103eb:	5e                   	pop    %esi
   103ec:	5f                   	pop    %edi
   103ed:	5d                   	pop    %ebp
   103ee:	58                   	pop    %eax
   103ef:	1f                   	pop    %ds
   103f0:	07                   	pop    %es
   103f1:	0f a1                	pop    %fs
   103f3:	0f a9                	pop    %gs
   103f5:	8b 14 24             	mov    (%esp),%edx
   103f8:	8b 4c 24 0c          	mov    0xc(%esp),%ecx
   103fc:	fb                   	sti    
   103fd:	0f 35                	sysexit 

000103ff <addASM>:
   103ff:	55                   	push   %ebp
   10400:	89 e5                	mov    %esp,%ebp
   10402:	89 45 08             	mov    %eax,0x8(%ebp)
   10405:	03 45 0c             	add    0xc(%ebp),%eax
   10408:	89 ec                	mov    %ebp,%esp
   1040a:	5d                   	pop    %ebp
   1040b:	c3                   	ret    

0001040c <writeMSR>:
   1040c:	55                   	push   %ebp
   1040d:	89 e5                	mov    %esp,%ebp
   1040f:	8b 15 00 00 00 00    	mov    0x0,%edx
   10415:	8b 4d 0c             	mov    0xc(%ebp),%ecx
   10418:	8b 45 08             	mov    0x8(%ebp),%eax
   1041b:	0f 30                	wrmsr  
   1041d:	89 ec                	mov    %ebp,%esp
   1041f:	5d                   	pop    %ebp
   10420:	c3                   	ret    

00010421 <sys_call_table>:
   10421:	00 07                	add    %al,(%edi)
   10423:	01 00                	add    %eax,(%eax)
   10425:	00 07                	add    %al,(%edi)
   10427:	01 00                	add    %eax,(%eax)
   10429:	00 07                	add    %al,(%edi)
   1042b:	01 00                	add    %eax,(%eax)
   1042d:	00 07                	add    %al,(%edi)
   1042f:	01 00                	add    %eax,(%eax)
   10431:	40                   	inc    %eax
   10432:	07                   	pop    %es
   10433:	01 00                	add    %eax,(%eax)
   10435:	00 07                	add    %al,(%edi)
   10437:	01 00                	add    %eax,(%eax)
   10439:	00 07                	add    %al,(%edi)
   1043b:	01 00                	add    %eax,(%eax)
   1043d:	00 07                	add    %al,(%edi)
   1043f:	01 00                	add    %eax,(%eax)
   10441:	00 07                	add    %al,(%edi)
   10443:	01 00                	add    %eax,(%eax)
   10445:	00 07                	add    %al,(%edi)
   10447:	01 00                	add    %eax,(%eax)
   10449:	30 08                	xor    %cl,(%eax)
   1044b:	01 00                	add    %eax,(%eax)
   1044d:	66 90                	xchg   %ax,%ax
   1044f:	90                   	nop

00010450 <printc.part.0>:
   10450:	0f b6 15 62 2a 01 00 	movzbl 0x12a62,%edx
   10457:	0f b6 0d a0 32 01 00 	movzbl 0x132a0,%ecx
   1045e:	0f b6 c0             	movzbl %al,%eax
   10461:	80 cc 02             	or     $0x2,%ah
   10464:	8d 14 92             	lea    (%edx,%edx,4),%edx
   10467:	c1 e2 04             	shl    $0x4,%edx
   1046a:	01 ca                	add    %ecx,%edx
   1046c:	66 89 84 12 00 80 0b 	mov    %ax,0xb8000(%edx,%edx,1)
   10473:	00 
   10474:	0f b6 05 a0 32 01 00 	movzbl 0x132a0,%eax
   1047b:	83 c0 01             	add    $0x1,%eax
   1047e:	3c 4f                	cmp    $0x4f,%al
   10480:	77 0e                	ja     10490 <printc.part.0+0x40>
   10482:	a2 a0 32 01 00       	mov    %al,0x132a0
   10487:	c3                   	ret    
   10488:	8d b4 26 00 00 00 00 	lea    0x0(%esi,%eiz,1),%esi
   1048f:	90                   	nop
   10490:	0f b6 0d 62 2a 01 00 	movzbl 0x12a62,%ecx
   10497:	ba 1f 85 eb 51       	mov    $0x51eb851f,%edx
   1049c:	c6 05 a0 32 01 00 00 	movb   $0x0,0x132a0
   104a3:	83 c1 01             	add    $0x1,%ecx
   104a6:	89 c8                	mov    %ecx,%eax
   104a8:	f7 e2                	mul    %edx
   104aa:	c1 ea 03             	shr    $0x3,%edx
   104ad:	8d 04 92             	lea    (%edx,%edx,4),%eax
   104b0:	8d 04 80             	lea    (%eax,%eax,4),%eax
   104b3:	29 c1                	sub    %eax,%ecx
   104b5:	88 0d 62 2a 01 00    	mov    %cl,0x12a62
   104bb:	c3                   	ret    
   104bc:	8d 74 26 00          	lea    0x0(%esi,%eiz,1),%esi

000104c0 <inb>:
   104c0:	55                   	push   %ebp
   104c1:	89 e5                	mov    %esp,%ebp
   104c3:	8b 55 08             	mov    0x8(%ebp),%edx
   104c6:	ec                   	in     (%dx),%al
   104c7:	5d                   	pop    %ebp
   104c8:	c3                   	ret    
   104c9:	8d b4 26 00 00 00 00 	lea    0x0(%esi,%eiz,1),%esi

000104d0 <printc>:
   104d0:	55                   	push   %ebp
   104d1:	89 e5                	mov    %esp,%ebp
   104d3:	8b 45 08             	mov    0x8(%ebp),%eax
   104d6:	88 c0                	mov    %al,%al
   104d8:	e6 e9                	out    %al,$0xe9
   104da:	0f b6 15 62 2a 01 00 	movzbl 0x12a62,%edx
   104e1:	3c 0a                	cmp    $0xa,%al
   104e3:	74 6b                	je     10550 <printc+0x80>
   104e5:	0f b6 0d a0 32 01 00 	movzbl 0x132a0,%ecx
   104ec:	8d 14 92             	lea    (%edx,%edx,4),%edx
   104ef:	0f b6 c0             	movzbl %al,%eax
   104f2:	c1 e2 04             	shl    $0x4,%edx
   104f5:	80 cc 02             	or     $0x2,%ah
   104f8:	01 ca                	add    %ecx,%edx
   104fa:	66 89 84 12 00 80 0b 	mov    %ax,0xb8000(%edx,%edx,1)
   10501:	00 
   10502:	0f b6 05 a0 32 01 00 	movzbl 0x132a0,%eax
   10509:	83 c0 01             	add    $0x1,%eax
   1050c:	3c 4f                	cmp    $0x4f,%al
   1050e:	76 30                	jbe    10540 <printc+0x70>
   10510:	0f b6 0d 62 2a 01 00 	movzbl 0x12a62,%ecx
   10517:	c6 05 a0 32 01 00 00 	movb   $0x0,0x132a0
   1051e:	83 c1 01             	add    $0x1,%ecx
   10521:	89 c8                	mov    %ecx,%eax
   10523:	ba 1f 85 eb 51       	mov    $0x51eb851f,%edx
   10528:	5d                   	pop    %ebp
   10529:	f7 e2                	mul    %edx
   1052b:	c1 ea 03             	shr    $0x3,%edx
   1052e:	8d 04 92             	lea    (%edx,%edx,4),%eax
   10531:	8d 04 80             	lea    (%eax,%eax,4),%eax
   10534:	29 c1                	sub    %eax,%ecx
   10536:	88 0d 62 2a 01 00    	mov    %cl,0x12a62
   1053c:	c3                   	ret    
   1053d:	8d 76 00             	lea    0x0(%esi),%esi
   10540:	a2 a0 32 01 00       	mov    %al,0x132a0
   10545:	5d                   	pop    %ebp
   10546:	c3                   	ret    
   10547:	8d b4 26 00 00 00 00 	lea    0x0(%esi,%eiz,1),%esi
   1054e:	66 90                	xchg   %ax,%ax
   10550:	c6 05 a0 32 01 00 00 	movb   $0x0,0x132a0
   10557:	8d 4a 01             	lea    0x1(%edx),%ecx
   1055a:	eb c5                	jmp    10521 <printc+0x51>
   1055c:	8d 74 26 00          	lea    0x0(%esi,%eiz,1),%esi

00010560 <printc_xy>:
   10560:	55                   	push   %ebp
   10561:	89 e5                	mov    %esp,%ebp
   10563:	56                   	push   %esi
   10564:	0f b6 35 a0 32 01 00 	movzbl 0x132a0,%esi
   1056b:	8b 55 08             	mov    0x8(%ebp),%edx
   1056e:	8b 45 10             	mov    0x10(%ebp),%eax
   10571:	53                   	push   %ebx
   10572:	0f b6 1d 62 2a 01 00 	movzbl 0x12a62,%ebx
   10579:	88 15 a0 32 01 00    	mov    %dl,0x132a0
   1057f:	8b 55 0c             	mov    0xc(%ebp),%edx
   10582:	88 15 62 2a 01 00    	mov    %dl,0x12a62
   10588:	88 c0                	mov    %al,%al
   1058a:	e6 e9                	out    %al,$0xe9
   1058c:	3c 0a                	cmp    $0xa,%al
   1058e:	74 08                	je     10598 <printc_xy+0x38>
   10590:	0f be c0             	movsbl %al,%eax
   10593:	e8 b8 fe ff ff       	call   10450 <printc.part.0>
   10598:	89 f0                	mov    %esi,%eax
   1059a:	88 1d 62 2a 01 00    	mov    %bl,0x12a62
   105a0:	5b                   	pop    %ebx
   105a1:	a2 a0 32 01 00       	mov    %al,0x132a0
   105a6:	5e                   	pop    %esi
   105a7:	5d                   	pop    %ebp
   105a8:	c3                   	ret    
   105a9:	8d b4 26 00 00 00 00 	lea    0x0(%esi,%eiz,1),%esi

000105b0 <printk>:
   105b0:	55                   	push   %ebp
   105b1:	89 e5                	mov    %esp,%ebp
   105b3:	56                   	push   %esi
   105b4:	8b 75 08             	mov    0x8(%ebp),%esi
   105b7:	53                   	push   %ebx
   105b8:	0f be 06             	movsbl (%esi),%eax
   105bb:	84 c0                	test   %al,%al
   105bd:	74 59                	je     10618 <printk+0x68>
   105bf:	83 c6 01             	add    $0x1,%esi
   105c2:	bb 1f 85 eb 51       	mov    $0x51eb851f,%ebx
   105c7:	eb 16                	jmp    105df <printk+0x2f>
   105c9:	8d b4 26 00 00 00 00 	lea    0x0(%esi,%eiz,1),%esi
   105d0:	e8 7b fe ff ff       	call   10450 <printc.part.0>
   105d5:	0f be 06             	movsbl (%esi),%eax
   105d8:	83 c6 01             	add    $0x1,%esi
   105db:	84 c0                	test   %al,%al
   105dd:	74 39                	je     10618 <printk+0x68>
   105df:	88 c0                	mov    %al,%al
   105e1:	e6 e9                	out    %al,$0xe9
   105e3:	3c 0a                	cmp    $0xa,%al
   105e5:	75 e9                	jne    105d0 <printk+0x20>
   105e7:	0f b6 0d 62 2a 01 00 	movzbl 0x12a62,%ecx
   105ee:	83 c6 01             	add    $0x1,%esi
   105f1:	c6 05 a0 32 01 00 00 	movb   $0x0,0x132a0
   105f8:	83 c1 01             	add    $0x1,%ecx
   105fb:	89 c8                	mov    %ecx,%eax
   105fd:	f7 e3                	mul    %ebx
   105ff:	c1 ea 03             	shr    $0x3,%edx
   10602:	8d 04 92             	lea    (%edx,%edx,4),%eax
   10605:	8d 04 80             	lea    (%eax,%eax,4),%eax
   10608:	29 c1                	sub    %eax,%ecx
   1060a:	88 0d 62 2a 01 00    	mov    %cl,0x12a62
   10610:	0f be 46 ff          	movsbl -0x1(%esi),%eax
   10614:	84 c0                	test   %al,%al
   10616:	75 c7                	jne    105df <printk+0x2f>
   10618:	5b                   	pop    %ebx
   10619:	5e                   	pop    %esi
   1061a:	5d                   	pop    %ebp
   1061b:	c3                   	ret    
   1061c:	66 90                	xchg   %ax,%ax
   1061e:	66 90                	xchg   %ax,%ax

00010620 <get_DIR>:
   10620:	55                   	push   %ebp
   10621:	89 e5                	mov    %esp,%ebp
   10623:	8b 45 08             	mov    0x8(%ebp),%eax
   10626:	5d                   	pop    %ebp
   10627:	8b 40 04             	mov    0x4(%eax),%eax
   1062a:	c3                   	ret    
   1062b:	8d 74 26 00          	lea    0x0(%esi,%eiz,1),%esi
   1062f:	90                   	nop

00010630 <get_PT>:
   10630:	55                   	push   %ebp
   10631:	89 e5                	mov    %esp,%ebp
   10633:	8b 45 08             	mov    0x8(%ebp),%eax
   10636:	5d                   	pop    %ebp
   10637:	8b 40 04             	mov    0x4(%eax),%eax
   1063a:	8b 00                	mov    (%eax),%eax
   1063c:	25 00 f0 ff ff       	and    $0xfffff000,%eax
   10641:	c3                   	ret    
   10642:	8d b4 26 00 00 00 00 	lea    0x0(%esi,%eiz,1),%esi
   10649:	8d b4 26 00 00 00 00 	lea    0x0(%esi,%eiz,1),%esi

00010650 <allocate_DIR>:
   10650:	55                   	push   %ebp
   10651:	89 e5                	mov    %esp,%ebp
   10653:	8b 55 08             	mov    0x8(%ebp),%edx
   10656:	89 d0                	mov    %edx,%eax
   10658:	2d 00 40 01 00       	sub    $0x14000,%eax
   1065d:	25 00 f0 ff ff       	and    $0xfffff000,%eax
   10662:	05 00 80 02 00       	add    $0x28000,%eax
   10667:	89 42 04             	mov    %eax,0x4(%edx)
   1066a:	b8 01 00 00 00       	mov    $0x1,%eax
   1066f:	5d                   	pop    %ebp
   10670:	c3                   	ret    
   10671:	8d b4 26 00 00 00 00 	lea    0x0(%esi,%eiz,1),%esi
   10678:	8d b4 26 00 00 00 00 	lea    0x0(%esi,%eiz,1),%esi
   1067f:	90                   	nop

00010680 <cpu_idle>:
   10680:	fb                   	sti    
   10681:	eb fe                	jmp    10681 <cpu_idle+0x1>
   10683:	8d b4 26 00 00 00 00 	lea    0x0(%esi,%eiz,1),%esi
   1068a:	8d b6 00 00 00 00    	lea    0x0(%esi),%esi

00010690 <init_idle>:
   10690:	c3                   	ret    
   10691:	8d b4 26 00 00 00 00 	lea    0x0(%esi,%eiz,1),%esi
   10698:	8d b4 26 00 00 00 00 	lea    0x0(%esi,%eiz,1),%esi
   1069f:	90                   	nop

000106a0 <init_task1>:
   106a0:	c3                   	ret    
   106a1:	8d b4 26 00 00 00 00 	lea    0x0(%esi,%eiz,1),%esi
   106a8:	8d b4 26 00 00 00 00 	lea    0x0(%esi,%eiz,1),%esi
   106af:	90                   	nop

000106b0 <init_sched>:
   106b0:	c3                   	ret    
   106b1:	8d b4 26 00 00 00 00 	lea    0x0(%esi,%eiz,1),%esi
   106b8:	8d b4 26 00 00 00 00 	lea    0x0(%esi,%eiz,1),%esi
   106bf:	90                   	nop

000106c0 <current>:
   106c0:	89 e0                	mov    %esp,%eax
   106c2:	25 00 f0 ff ff       	and    $0xfffff000,%eax
   106c7:	c3                   	ret    
   106c8:	66 90                	xchg   %ax,%ax
   106ca:	66 90                	xchg   %ax,%ax
   106cc:	66 90                	xchg   %ax,%ax
   106ce:	66 90                	xchg   %ax,%ax

000106d0 <check_fd>:
   106d0:	55                   	push   %ebp
   106d1:	89 e5                	mov    %esp,%ebp
   106d3:	83 7d 08 01          	cmpl   $0x1,0x8(%ebp)
   106d7:	75 17                	jne    106f0 <check_fd+0x20>
   106d9:	31 c0                	xor    %eax,%eax
   106db:	ba f3 ff ff ff       	mov    $0xfffffff3,%edx
   106e0:	83 7d 0c 01          	cmpl   $0x1,0xc(%ebp)
   106e4:	5d                   	pop    %ebp
   106e5:	0f 45 c2             	cmovne %edx,%eax
   106e8:	c3                   	ret    
   106e9:	8d b4 26 00 00 00 00 	lea    0x0(%esi,%eiz,1),%esi
   106f0:	b8 f7 ff ff ff       	mov    $0xfffffff7,%eax
   106f5:	5d                   	pop    %ebp
   106f6:	c3                   	ret    
   106f7:	8d b4 26 00 00 00 00 	lea    0x0(%esi,%eiz,1),%esi
   106fe:	66 90                	xchg   %ax,%ax

00010700 <sys_ni_syscall>:
   10700:	b8 da ff ff ff       	mov    $0xffffffda,%eax
   10705:	c3                   	ret    
   10706:	8d b4 26 00 00 00 00 	lea    0x0(%esi,%eiz,1),%esi
   1070d:	8d 76 00             	lea    0x0(%esi),%esi

00010710 <sys_getpid>:
   10710:	55                   	push   %ebp
   10711:	89 e5                	mov    %esp,%ebp
   10713:	83 ec 08             	sub    $0x8,%esp
   10716:	e8 a5 ff ff ff       	call   106c0 <current>
   1071b:	8b 00                	mov    (%eax),%eax
   1071d:	c9                   	leave  
   1071e:	c3                   	ret    
   1071f:	90                   	nop

00010720 <sys_fork>:
   10720:	b8 ff ff ff ff       	mov    $0xffffffff,%eax
   10725:	c3                   	ret    
   10726:	8d b4 26 00 00 00 00 	lea    0x0(%esi,%eiz,1),%esi
   1072d:	8d 76 00             	lea    0x0(%esi),%esi

00010730 <sys_exit>:
   10730:	c3                   	ret    
   10731:	8d b4 26 00 00 00 00 	lea    0x0(%esi,%eiz,1),%esi
   10738:	8d b4 26 00 00 00 00 	lea    0x0(%esi,%eiz,1),%esi
   1073f:	90                   	nop

00010740 <sys_write>:
   10740:	55                   	push   %ebp
   10741:	89 e5                	mov    %esp,%ebp
   10743:	57                   	push   %edi
   10744:	56                   	push   %esi
   10745:	53                   	push   %ebx
   10746:	83 ec 1c             	sub    $0x1c,%esp
   10749:	83 7d 08 01          	cmpl   $0x1,0x8(%ebp)
   1074d:	8b 7d 0c             	mov    0xc(%ebp),%edi
   10750:	8b 5d 10             	mov    0x10(%ebp),%ebx
   10753:	0f 85 c7 00 00 00    	jne    10820 <sys_write+0xe0>
   10759:	85 ff                	test   %edi,%edi
   1075b:	0f 84 9f 00 00 00    	je     10800 <sys_write+0xc0>
   10761:	85 db                	test   %ebx,%ebx
   10763:	0f 8e be 00 00 00    	jle    10827 <sys_write+0xe7>
   10769:	8d 73 ff             	lea    -0x1(%ebx),%esi
   1076c:	81 e6 00 fe ff ff    	and    $0xfffffe00,%esi
   10772:	8d 86 00 02 00 00    	lea    0x200(%esi),%eax
   10778:	31 f6                	xor    %esi,%esi
   1077a:	89 45 e4             	mov    %eax,-0x1c(%ebp)
   1077d:	eb 33                	jmp    107b2 <sys_write+0x72>
   1077f:	90                   	nop
   10780:	83 ec 04             	sub    $0x4,%esp
   10783:	81 c6 00 02 00 00    	add    $0x200,%esi
   10789:	68 00 02 00 00       	push   $0x200
   1078e:	68 c0 32 01 00       	push   $0x132c0
   10793:	50                   	push   %eax
   10794:	e8 67 06 00 00       	call   10e00 <copy_from_user>
   10799:	58                   	pop    %eax
   1079a:	5a                   	pop    %edx
   1079b:	68 00 02 00 00       	push   $0x200
   107a0:	68 c0 32 01 00       	push   $0x132c0
   107a5:	e8 a6 05 00 00       	call   10d50 <sys_write_console>
   107aa:	83 c4 10             	add    $0x10,%esp
   107ad:	3b 75 e4             	cmp    -0x1c(%ebp),%esi
   107b0:	74 41                	je     107f3 <sys_write+0xb3>
   107b2:	8d 8e ff 01 00 00    	lea    0x1ff(%esi),%ecx
   107b8:	8d 04 37             	lea    (%edi,%esi,1),%eax
   107bb:	39 d9                	cmp    %ebx,%ecx
   107bd:	7c c1                	jl     10780 <sys_write+0x40>
   107bf:	89 d9                	mov    %ebx,%ecx
   107c1:	83 ec 04             	sub    $0x4,%esp
   107c4:	29 f1                	sub    %esi,%ecx
   107c6:	81 c6 00 02 00 00    	add    $0x200,%esi
   107cc:	51                   	push   %ecx
   107cd:	68 c0 32 01 00       	push   $0x132c0
   107d2:	50                   	push   %eax
   107d3:	89 4d e0             	mov    %ecx,-0x20(%ebp)
   107d6:	e8 25 06 00 00       	call   10e00 <copy_from_user>
   107db:	59                   	pop    %ecx
   107dc:	8b 4d e0             	mov    -0x20(%ebp),%ecx
   107df:	58                   	pop    %eax
   107e0:	51                   	push   %ecx
   107e1:	68 c0 32 01 00       	push   $0x132c0
   107e6:	e8 65 05 00 00       	call   10d50 <sys_write_console>
   107eb:	83 c4 10             	add    $0x10,%esp
   107ee:	3b 75 e4             	cmp    -0x1c(%ebp),%esi
   107f1:	75 bf                	jne    107b2 <sys_write+0x72>
   107f3:	8d 65 f4             	lea    -0xc(%ebp),%esp
   107f6:	89 d8                	mov    %ebx,%eax
   107f8:	5b                   	pop    %ebx
   107f9:	5e                   	pop    %esi
   107fa:	5f                   	pop    %edi
   107fb:	5d                   	pop    %ebp
   107fc:	c3                   	ret    
   107fd:	8d 76 00             	lea    0x0(%esi),%esi
   10800:	83 ec 04             	sub    $0x4,%esp
   10803:	53                   	push   %ebx
   10804:	6a 00                	push   $0x0
   10806:	6a 00                	push   $0x0
   10808:	e8 d3 06 00 00       	call   10ee0 <access_ok>
   1080d:	83 c4 10             	add    $0x10,%esp
   10810:	85 c0                	test   %eax,%eax
   10812:	0f 85 49 ff ff ff    	jne    10761 <sys_write+0x21>
   10818:	bb f2 ff ff ff       	mov    $0xfffffff2,%ebx
   1081d:	eb d4                	jmp    107f3 <sys_write+0xb3>
   1081f:	90                   	nop
   10820:	bb f7 ff ff ff       	mov    $0xfffffff7,%ebx
   10825:	eb cc                	jmp    107f3 <sys_write+0xb3>
   10827:	bb ea ff ff ff       	mov    $0xffffffea,%ebx
   1082c:	eb c5                	jmp    107f3 <sys_write+0xb3>
   1082e:	66 90                	xchg   %ax,%ax

00010830 <sys_gettime>:
   10830:	a1 80 2a 01 00       	mov    0x12a80,%eax
   10835:	c3                   	ret    
   10836:	66 90                	xchg   %ax,%ax
   10838:	66 90                	xchg   %ax,%ax
   1083a:	66 90                	xchg   %ax,%ax
   1083c:	66 90                	xchg   %ax,%ax
   1083e:	66 90                	xchg   %ax,%ax

00010840 <init_dir_pages>:
   10840:	55                   	push   %ebp
   10841:	b9 00 e0 01 00       	mov    $0x1e000,%ecx
   10846:	31 c0                	xor    %eax,%eax
   10848:	89 e5                	mov    %esp,%ebp
   1084a:	53                   	push   %ebx
   1084b:	8d 74 26 00          	lea    0x0(%esi,%eiz,1),%esi
   1084f:	90                   	nop
   10850:	89 ca                	mov    %ecx,%edx
   10852:	89 c3                	mov    %eax,%ebx
   10854:	83 c0 01             	add    $0x1,%eax
   10857:	81 c1 00 10 00 00    	add    $0x1000,%ecx
   1085d:	81 e2 00 f0 ff ff    	and    $0xfffff000,%edx
   10863:	c1 e3 0c             	shl    $0xc,%ebx
   10866:	83 ca 07             	or     $0x7,%edx
   10869:	89 93 00 80 02 00    	mov    %edx,0x28000(%ebx)
   1086f:	83 f8 0a             	cmp    $0xa,%eax
   10872:	75 dc                	jne    10850 <init_dir_pages+0x10>
   10874:	8b 5d fc             	mov    -0x4(%ebp),%ebx
   10877:	c9                   	leave  
   10878:	c3                   	ret    
   10879:	8d b4 26 00 00 00 00 	lea    0x0(%esi,%eiz,1),%esi

00010880 <init_table_pages>:
   10880:	55                   	push   %ebp
   10881:	89 e5                	mov    %esp,%ebp
   10883:	57                   	push   %edi
   10884:	56                   	push   %esi
   10885:	be 00 f0 01 00       	mov    $0x1f000,%esi
   1088a:	53                   	push   %ebx
   1088b:	83 ec 04             	sub    $0x4,%esp
   1088e:	c7 45 f0 00 00 00 00 	movl   $0x0,-0x10(%ebp)
   10895:	8d 86 00 f0 ff ff    	lea    -0x1000(%esi),%eax
   1089b:	8d 74 26 00          	lea    0x0(%esi,%eiz,1),%esi
   1089f:	90                   	nop
   108a0:	c7 00 00 00 00 00    	movl   $0x0,(%eax)
   108a6:	83 c0 04             	add    $0x4,%eax
   108a9:	39 f0                	cmp    %esi,%eax
   108ab:	75 f3                	jne    108a0 <init_table_pages+0x20>
   108ad:	8b 7d f0             	mov    -0x10(%ebp),%edi
   108b0:	ba 01 00 00 00       	mov    $0x1,%edx
   108b5:	c1 e7 0a             	shl    $0xa,%edi
   108b8:	8d b4 26 00 00 00 00 	lea    0x0(%esi,%eiz,1),%esi
   108bf:	90                   	nop
   108c0:	8d 0c 17             	lea    (%edi,%edx,1),%ecx
   108c3:	89 d0                	mov    %edx,%eax
   108c5:	83 c2 01             	add    $0x1,%edx
   108c8:	8b 1c 8d 00 e0 01 00 	mov    0x1e000(,%ecx,4),%ebx
   108cf:	c1 e0 0c             	shl    $0xc,%eax
   108d2:	83 c8 03             	or     $0x3,%eax
   108d5:	81 e3 fc 0f 00 00    	and    $0xffc,%ebx
   108db:	09 d8                	or     %ebx,%eax
   108dd:	89 04 8d 00 e0 01 00 	mov    %eax,0x1e000(,%ecx,4)
   108e4:	81 fa 00 01 00 00    	cmp    $0x100,%edx
   108ea:	75 d4                	jne    108c0 <init_table_pages+0x40>
   108ec:	83 45 f0 01          	addl   $0x1,-0x10(%ebp)
   108f0:	8b 45 f0             	mov    -0x10(%ebp),%eax
   108f3:	81 c6 00 10 00 00    	add    $0x1000,%esi
   108f9:	83 f8 0a             	cmp    $0xa,%eax
   108fc:	75 97                	jne    10895 <init_table_pages+0x15>
   108fe:	83 c4 04             	add    $0x4,%esp
   10901:	5b                   	pop    %ebx
   10902:	5e                   	pop    %esi
   10903:	5f                   	pop    %edi
   10904:	5d                   	pop    %ebp
   10905:	c3                   	ret    
   10906:	8d b4 26 00 00 00 00 	lea    0x0(%esi,%eiz,1),%esi
   1090d:	8d 76 00             	lea    0x0(%esi),%esi

00010910 <set_user_pages>:
   10910:	55                   	push   %ebp
   10911:	89 e5                	mov    %esp,%ebp
   10913:	56                   	push   %esi
   10914:	53                   	push   %ebx
   10915:	83 ec 0c             	sub    $0xc,%esp
   10918:	ff 75 08             	push   0x8(%ebp)
   1091b:	e8 10 fd ff ff       	call   10630 <get_PT>
   10920:	83 c4 10             	add    $0x10,%esp
   10923:	8d 90 50 04 00 00    	lea    0x450(%eax),%edx
   10929:	89 c1                	mov    %eax,%ecx
   1092b:	8d b0 70 04 00 00    	lea    0x470(%eax),%esi
   10931:	89 d3                	mov    %edx,%ebx
   10933:	8d 74 26 00          	lea    0x0(%esi,%eiz,1),%esi
   10937:	90                   	nop
   10938:	b8 00 01 00 00       	mov    $0x100,%eax
   1093d:	eb 0b                	jmp    1094a <set_user_pages+0x3a>
   1093f:	90                   	nop
   10940:	83 c0 02             	add    $0x2,%eax
   10943:	3d 00 04 00 00       	cmp    $0x400,%eax
   10948:	74 7d                	je     109c7 <set_user_pages+0xb7>
   1094a:	80 b8 40 35 01 00 00 	cmpb   $0x0,0x13540(%eax)
   10951:	75 ed                	jne    10940 <set_user_pages+0x30>
   10953:	c6 80 40 35 01 00 01 	movb   $0x1,0x13540(%eax)
   1095a:	25 ff ff 0f 00       	and    $0xfffff,%eax
   1095f:	c1 e0 0c             	shl    $0xc,%eax
   10962:	83 c3 04             	add    $0x4,%ebx
   10965:	83 c8 05             	or     $0x5,%eax
   10968:	89 43 fc             	mov    %eax,-0x4(%ebx)
   1096b:	39 f3                	cmp    %esi,%ebx
   1096d:	75 c9                	jne    10938 <set_user_pages+0x28>
   1096f:	81 c1 00 04 00 00    	add    $0x400,%ecx
   10975:	8d 76 00             	lea    0x0(%esi),%esi
   10978:	b8 00 01 00 00       	mov    $0x100,%eax
   1097d:	eb 0b                	jmp    1098a <set_user_pages+0x7a>
   1097f:	90                   	nop
   10980:	83 c0 02             	add    $0x2,%eax
   10983:	3d 00 04 00 00       	cmp    $0x400,%eax
   10988:	74 36                	je     109c0 <set_user_pages+0xb0>
   1098a:	80 b8 40 35 01 00 00 	cmpb   $0x0,0x13540(%eax)
   10991:	75 ed                	jne    10980 <set_user_pages+0x70>
   10993:	c6 80 40 35 01 00 01 	movb   $0x1,0x13540(%eax)
   1099a:	25 ff ff 0f 00       	and    $0xfffff,%eax
   1099f:	c1 e0 0c             	shl    $0xc,%eax
   109a2:	83 c1 04             	add    $0x4,%ecx
   109a5:	83 c8 07             	or     $0x7,%eax
   109a8:	89 41 fc             	mov    %eax,-0x4(%ecx)
   109ab:	39 ca                	cmp    %ecx,%edx
   109ad:	75 c9                	jne    10978 <set_user_pages+0x68>
   109af:	8d 65 f8             	lea    -0x8(%ebp),%esp
   109b2:	5b                   	pop    %ebx
   109b3:	5e                   	pop    %esi
   109b4:	5d                   	pop    %ebp
   109b5:	c3                   	ret    
   109b6:	8d b4 26 00 00 00 00 	lea    0x0(%esi,%eiz,1),%esi
   109bd:	8d 76 00             	lea    0x0(%esi),%esi
   109c0:	b8 ff ff 0f 00       	mov    $0xfffff,%eax
   109c5:	eb d8                	jmp    1099f <set_user_pages+0x8f>
   109c7:	b8 ff ff 0f 00       	mov    $0xfffff,%eax
   109cc:	eb 91                	jmp    1095f <set_user_pages+0x4f>
   109ce:	66 90                	xchg   %ax,%ax

000109d0 <set_cr3>:
   109d0:	55                   	push   %ebp
   109d1:	89 e5                	mov    %esp,%ebp
   109d3:	8b 45 08             	mov    0x8(%ebp),%eax
   109d6:	0f 22 d8             	mov    %eax,%cr3
   109d9:	5d                   	pop    %ebp
   109da:	c3                   	ret    
   109db:	8d 74 26 00          	lea    0x0(%esi,%eiz,1),%esi
   109df:	90                   	nop

000109e0 <set_pe_flag>:
   109e0:	0f 20 c0             	mov    %cr0,%eax
   109e3:	0d 00 00 00 80       	or     $0x80000000,%eax
   109e8:	0f 22 c0             	mov    %eax,%cr0
   109eb:	c3                   	ret    
   109ec:	8d 74 26 00          	lea    0x0(%esi,%eiz,1),%esi

000109f0 <init_mm>:
   109f0:	55                   	push   %ebp
   109f1:	89 e5                	mov    %esp,%ebp
   109f3:	53                   	push   %ebx
   109f4:	83 ec 04             	sub    $0x4,%esp
   109f7:	e8 84 fe ff ff       	call   10880 <init_table_pages>
   109fc:	31 c0                	xor    %eax,%eax
   109fe:	66 90                	xchg   %ax,%ax
   10a00:	c6 80 40 35 01 00 00 	movb   $0x0,0x13540(%eax)
   10a07:	83 c0 01             	add    $0x1,%eax
   10a0a:	3d 00 04 00 00       	cmp    $0x400,%eax
   10a0f:	75 ef                	jne    10a00 <init_mm+0x10>
   10a11:	31 c0                	xor    %eax,%eax
   10a13:	8d 74 26 00          	lea    0x0(%esi,%eiz,1),%esi
   10a17:	90                   	nop
   10a18:	c6 80 40 35 01 00 01 	movb   $0x1,0x13540(%eax)
   10a1f:	83 c0 01             	add    $0x1,%eax
   10a22:	3d 00 01 00 00       	cmp    $0x100,%eax
   10a27:	75 ef                	jne    10a18 <init_mm+0x28>
   10a29:	b9 00 e0 01 00       	mov    $0x1e000,%ecx
   10a2e:	31 c0                	xor    %eax,%eax
   10a30:	89 ca                	mov    %ecx,%edx
   10a32:	89 c3                	mov    %eax,%ebx
   10a34:	83 c0 01             	add    $0x1,%eax
   10a37:	81 c1 00 10 00 00    	add    $0x1000,%ecx
   10a3d:	81 e2 00 f0 ff ff    	and    $0xfffff000,%edx
   10a43:	c1 e3 0c             	shl    $0xc,%ebx
   10a46:	83 ca 07             	or     $0x7,%edx
   10a49:	89 93 00 80 02 00    	mov    %edx,0x28000(%ebx)
   10a4f:	83 f8 0a             	cmp    $0xa,%eax
   10a52:	75 dc                	jne    10a30 <init_mm+0x40>
   10a54:	83 ec 0c             	sub    $0xc,%esp
   10a57:	68 00 40 01 00       	push   $0x14000
   10a5c:	e8 ef fb ff ff       	call   10650 <allocate_DIR>
   10a61:	c7 04 24 00 40 01 00 	movl   $0x14000,(%esp)
   10a68:	e8 b3 fb ff ff       	call   10620 <get_DIR>
   10a6d:	0f 22 d8             	mov    %eax,%cr3
   10a70:	0f 20 c0             	mov    %cr0,%eax
   10a73:	0d 00 00 00 80       	or     $0x80000000,%eax
   10a78:	0f 22 c0             	mov    %eax,%cr0
   10a7b:	8b 5d fc             	mov    -0x4(%ebp),%ebx
   10a7e:	83 c4 10             	add    $0x10,%esp
   10a81:	c9                   	leave  
   10a82:	c3                   	ret    
   10a83:	8d b4 26 00 00 00 00 	lea    0x0(%esi,%eiz,1),%esi
   10a8a:	8d b6 00 00 00 00    	lea    0x0(%esi),%esi

00010a90 <setGdt>:
   10a90:	55                   	push   %ebp
   10a91:	b8 c0 34 01 00       	mov    $0x134c0,%eax
   10a96:	89 c1                	mov    %eax,%ecx
   10a98:	c1 e9 10             	shr    $0x10,%ecx
   10a9b:	89 e5                	mov    %esp,%ebp
   10a9d:	83 ec 14             	sub    $0x14,%esp
   10aa0:	8b 15 64 2a 01 00    	mov    0x12a64,%edx
   10aa6:	66 89 42 32          	mov    %ax,0x32(%edx)
   10aaa:	c1 e8 18             	shr    $0x18,%eax
   10aad:	88 42 37             	mov    %al,0x37(%edx)
   10ab0:	b8 00 08 00 00       	mov    $0x800,%eax
   10ab5:	88 4a 34             	mov    %cl,0x34(%edx)
   10ab8:	68 28 35 01 00       	push   $0x13528
   10abd:	89 15 2a 35 01 00    	mov    %edx,0x1352a
   10ac3:	66 a3 28 35 01 00    	mov    %ax,0x13528
   10ac9:	e8 f2 04 00 00       	call   10fc0 <set_gdt_reg>
   10ace:	83 c4 10             	add    $0x10,%esp
   10ad1:	c9                   	leave  
   10ad2:	c3                   	ret    
   10ad3:	8d b4 26 00 00 00 00 	lea    0x0(%esi,%eiz,1),%esi
   10ada:	8d b6 00 00 00 00    	lea    0x0(%esi),%esi

00010ae0 <setTSS>:
   10ae0:	55                   	push   %ebp
   10ae1:	31 c0                	xor    %eax,%eax
   10ae3:	ba 18 00 00 00       	mov    $0x18,%edx
   10ae8:	31 c9                	xor    %ecx,%ecx
   10aea:	89 e5                	mov    %esp,%ebp
   10aec:	83 ec 14             	sub    $0x14,%esp
   10aef:	66 a3 c0 34 01 00    	mov    %ax,0x134c0
   10af5:	31 c0                	xor    %eax,%eax
   10af7:	66 a3 d8 34 01 00    	mov    %ax,0x134d8
   10afd:	b8 2b 00 00 00       	mov    $0x2b,%eax
   10b02:	66 a3 08 35 01 00    	mov    %ax,0x13508
   10b08:	b8 23 00 00 00       	mov    $0x23,%eax
   10b0d:	66 a3 0c 35 01 00    	mov    %ax,0x1350c
   10b13:	b8 2b 00 00 00       	mov    $0x2b,%eax
   10b18:	6a 30                	push   $0x30
   10b1a:	66 a3 10 35 01 00    	mov    %ax,0x13510
   10b20:	b8 2b 00 00 00       	mov    $0x2b,%eax
   10b25:	66 89 15 c8 34 01 00 	mov    %dx,0x134c8
   10b2c:	31 d2                	xor    %edx,%edx
   10b2e:	66 89 0d d0 34 01 00 	mov    %cx,0x134d0
   10b35:	31 c9                	xor    %ecx,%ecx
   10b37:	66 a3 14 35 01 00    	mov    %ax,0x13514
   10b3d:	b8 30 00 00 00       	mov    $0x30,%eax
   10b42:	c7 05 c4 34 01 00 00 	movl   $0x16000,0x134c4
   10b49:	60 01 00 
   10b4c:	c7 05 cc 34 01 00 00 	movl   $0x0,0x134cc
   10b53:	00 00 00 
   10b56:	c7 05 d4 34 01 00 00 	movl   $0x0,0x134d4
   10b5d:	00 00 00 
   10b60:	c7 05 dc 34 01 00 00 	movl   $0x0,0x134dc
   10b67:	00 00 00 
   10b6a:	c7 05 e0 34 01 00 00 	movl   $0x0,0x134e0
   10b71:	00 00 00 
   10b74:	c7 05 e4 34 01 00 00 	movl   $0x200,0x134e4
   10b7b:	02 00 00 
   10b7e:	c7 05 e8 34 01 00 00 	movl   $0x0,0x134e8
   10b85:	00 00 00 
   10b88:	c7 05 ec 34 01 00 00 	movl   $0x0,0x134ec
   10b8f:	00 00 00 
   10b92:	c7 05 f0 34 01 00 00 	movl   $0x0,0x134f0
   10b99:	00 00 00 
   10b9c:	c7 05 f4 34 01 00 00 	movl   $0x0,0x134f4
   10ba3:	00 00 00 
   10ba6:	c7 05 f8 34 01 00 f0 	movl   $0x113ff0,0x134f8
   10bad:	3f 11 00 
   10bb0:	c7 05 fc 34 01 00 f0 	movl   $0x113ff0,0x134fc
   10bb7:	3f 11 00 
   10bba:	c7 05 00 35 01 00 00 	movl   $0x0,0x13500
   10bc1:	00 00 00 
   10bc4:	c7 05 04 35 01 00 00 	movl   $0x0,0x13504
   10bcb:	00 00 00 
   10bce:	66 89 15 18 35 01 00 	mov    %dx,0x13518
   10bd5:	66 89 0d 1c 35 01 00 	mov    %cx,0x1351c
   10bdc:	66 a3 20 35 01 00    	mov    %ax,0x13520
   10be2:	c7 05 24 35 01 00 00 	movl   $0x0,0x13524
   10be9:	00 00 00 
   10bec:	e8 ef 03 00 00       	call   10fe0 <set_task_reg>
   10bf1:	83 c4 10             	add    $0x10,%esp
   10bf4:	c9                   	leave  
   10bf5:	c3                   	ret    
   10bf6:	8d b4 26 00 00 00 00 	lea    0x0(%esi,%eiz,1),%esi
   10bfd:	8d 76 00             	lea    0x0(%esi),%esi

00010c00 <init_frames>:
   10c00:	31 c0                	xor    %eax,%eax
   10c02:	8d b6 00 00 00 00    	lea    0x0(%esi),%esi
   10c08:	c6 80 40 35 01 00 00 	movb   $0x0,0x13540(%eax)
   10c0f:	83 c0 01             	add    $0x1,%eax
   10c12:	3d 00 04 00 00       	cmp    $0x400,%eax
   10c17:	75 ef                	jne    10c08 <init_frames+0x8>
   10c19:	31 c0                	xor    %eax,%eax
   10c1b:	8d 74 26 00          	lea    0x0(%esi,%eiz,1),%esi
   10c1f:	90                   	nop
   10c20:	c6 80 40 35 01 00 01 	movb   $0x1,0x13540(%eax)
   10c27:	83 c0 01             	add    $0x1,%eax
   10c2a:	3d 00 01 00 00       	cmp    $0x100,%eax
   10c2f:	75 ef                	jne    10c20 <init_frames+0x20>
   10c31:	31 c0                	xor    %eax,%eax
   10c33:	c3                   	ret    
   10c34:	8d b4 26 00 00 00 00 	lea    0x0(%esi,%eiz,1),%esi
   10c3b:	8d 74 26 00          	lea    0x0(%esi,%eiz,1),%esi
   10c3f:	90                   	nop

00010c40 <alloc_frame>:
   10c40:	b8 00 01 00 00       	mov    $0x100,%eax
   10c45:	eb 13                	jmp    10c5a <alloc_frame+0x1a>
   10c47:	8d b4 26 00 00 00 00 	lea    0x0(%esi,%eiz,1),%esi
   10c4e:	66 90                	xchg   %ax,%ax
   10c50:	83 c0 02             	add    $0x2,%eax
   10c53:	3d 00 04 00 00       	cmp    $0x400,%eax
   10c58:	74 16                	je     10c70 <alloc_frame+0x30>
   10c5a:	80 b8 40 35 01 00 00 	cmpb   $0x0,0x13540(%eax)
   10c61:	75 ed                	jne    10c50 <alloc_frame+0x10>
   10c63:	c6 80 40 35 01 00 01 	movb   $0x1,0x13540(%eax)
   10c6a:	c3                   	ret    
   10c6b:	8d 74 26 00          	lea    0x0(%esi,%eiz,1),%esi
   10c6f:	90                   	nop
   10c70:	b8 ff ff ff ff       	mov    $0xffffffff,%eax
   10c75:	c3                   	ret    
   10c76:	8d b4 26 00 00 00 00 	lea    0x0(%esi,%eiz,1),%esi
   10c7d:	8d 76 00             	lea    0x0(%esi),%esi

00010c80 <free_user_pages>:
   10c80:	55                   	push   %ebp
   10c81:	89 e5                	mov    %esp,%ebp
   10c83:	53                   	push   %ebx
   10c84:	83 ec 10             	sub    $0x10,%esp
   10c87:	ff 75 08             	push   0x8(%ebp)
   10c8a:	e8 a1 f9 ff ff       	call   10630 <get_PT>
   10c8f:	83 c4 10             	add    $0x10,%esp
   10c92:	8d 90 00 04 00 00    	lea    0x400(%eax),%edx
   10c98:	8d 98 50 04 00 00    	lea    0x450(%eax),%ebx
   10c9e:	66 90                	xchg   %ax,%ax
   10ca0:	8b 02                	mov    (%edx),%eax
   10ca2:	c1 e8 0c             	shr    $0xc,%eax
   10ca5:	8d 88 ff fe ff ff    	lea    -0x101(%eax),%ecx
   10cab:	81 f9 fe 02 00 00    	cmp    $0x2fe,%ecx
   10cb1:	77 07                	ja     10cba <free_user_pages+0x3a>
   10cb3:	c6 80 40 35 01 00 00 	movb   $0x0,0x13540(%eax)
   10cba:	c7 02 00 00 00 00    	movl   $0x0,(%edx)
   10cc0:	83 c2 04             	add    $0x4,%edx
   10cc3:	39 d3                	cmp    %edx,%ebx
   10cc5:	75 d9                	jne    10ca0 <free_user_pages+0x20>
   10cc7:	8b 5d fc             	mov    -0x4(%ebp),%ebx
   10cca:	c9                   	leave  
   10ccb:	c3                   	ret    
   10ccc:	8d 74 26 00          	lea    0x0(%esi,%eiz,1),%esi

00010cd0 <free_frame>:
   10cd0:	55                   	push   %ebp
   10cd1:	89 e5                	mov    %esp,%ebp
   10cd3:	8b 45 08             	mov    0x8(%ebp),%eax
   10cd6:	8d 90 ff fe ff ff    	lea    -0x101(%eax),%edx
   10cdc:	81 fa fe 02 00 00    	cmp    $0x2fe,%edx
   10ce2:	77 07                	ja     10ceb <free_frame+0x1b>
   10ce4:	c6 80 40 35 01 00 00 	movb   $0x0,0x13540(%eax)
   10ceb:	5d                   	pop    %ebp
   10cec:	c3                   	ret    
   10ced:	8d 76 00             	lea    0x0(%esi),%esi

00010cf0 <set_ss_pag>:
   10cf0:	55                   	push   %ebp
   10cf1:	89 e5                	mov    %esp,%ebp
   10cf3:	8b 55 08             	mov    0x8(%ebp),%edx
   10cf6:	8b 45 0c             	mov    0xc(%ebp),%eax
   10cf9:	8d 04 82             	lea    (%edx,%eax,4),%eax
   10cfc:	8b 55 10             	mov    0x10(%ebp),%edx
   10cff:	c1 e2 0c             	shl    $0xc,%edx
   10d02:	83 ca 07             	or     $0x7,%edx
   10d05:	89 10                	mov    %edx,(%eax)
   10d07:	5d                   	pop    %ebp
   10d08:	c3                   	ret    
   10d09:	8d b4 26 00 00 00 00 	lea    0x0(%esi,%eiz,1),%esi

00010d10 <del_ss_pag>:
   10d10:	55                   	push   %ebp
   10d11:	89 e5                	mov    %esp,%ebp
   10d13:	8b 45 08             	mov    0x8(%ebp),%eax
   10d16:	8b 55 0c             	mov    0xc(%ebp),%edx
   10d19:	c7 04 90 00 00 00 00 	movl   $0x0,(%eax,%edx,4)
   10d20:	5d                   	pop    %ebp
   10d21:	c3                   	ret    
   10d22:	8d b4 26 00 00 00 00 	lea    0x0(%esi,%eiz,1),%esi
   10d29:	8d b4 26 00 00 00 00 	lea    0x0(%esi,%eiz,1),%esi

00010d30 <get_frame>:
   10d30:	55                   	push   %ebp
   10d31:	89 e5                	mov    %esp,%ebp
   10d33:	8b 45 08             	mov    0x8(%ebp),%eax
   10d36:	8b 55 0c             	mov    0xc(%ebp),%edx
   10d39:	5d                   	pop    %ebp
   10d3a:	8b 04 90             	mov    (%eax,%edx,4),%eax
   10d3d:	c1 e8 0c             	shr    $0xc,%eax
   10d40:	c3                   	ret    
   10d41:	66 90                	xchg   %ax,%ax
   10d43:	66 90                	xchg   %ax,%ax
   10d45:	66 90                	xchg   %ax,%ax
   10d47:	66 90                	xchg   %ax,%ax
   10d49:	66 90                	xchg   %ax,%ax
   10d4b:	66 90                	xchg   %ax,%ax
   10d4d:	66 90                	xchg   %ax,%ax
   10d4f:	90                   	nop

00010d50 <sys_write_console>:
   10d50:	55                   	push   %ebp
   10d51:	89 e5                	mov    %esp,%ebp
   10d53:	57                   	push   %edi
   10d54:	56                   	push   %esi
   10d55:	53                   	push   %ebx
   10d56:	83 ec 0c             	sub    $0xc,%esp
   10d59:	8b 7d 0c             	mov    0xc(%ebp),%edi
   10d5c:	85 ff                	test   %edi,%edi
   10d5e:	7e 26                	jle    10d86 <sys_write_console+0x36>
   10d60:	8b 5d 08             	mov    0x8(%ebp),%ebx
   10d63:	8d 34 3b             	lea    (%ebx,%edi,1),%esi
   10d66:	8d b4 26 00 00 00 00 	lea    0x0(%esi,%eiz,1),%esi
   10d6d:	8d 76 00             	lea    0x0(%esi),%esi
   10d70:	0f be 03             	movsbl (%ebx),%eax
   10d73:	83 ec 0c             	sub    $0xc,%esp
   10d76:	83 c3 01             	add    $0x1,%ebx
   10d79:	50                   	push   %eax
   10d7a:	e8 51 f7 ff ff       	call   104d0 <printc>
   10d7f:	83 c4 10             	add    $0x10,%esp
   10d82:	39 f3                	cmp    %esi,%ebx
   10d84:	75 ea                	jne    10d70 <sys_write_console+0x20>
   10d86:	8d 65 f4             	lea    -0xc(%ebp),%esp
   10d89:	89 f8                	mov    %edi,%eax
   10d8b:	5b                   	pop    %ebx
   10d8c:	5e                   	pop    %esi
   10d8d:	5f                   	pop    %edi
   10d8e:	5d                   	pop    %ebp
   10d8f:	c3                   	ret    

00010d90 <copy_data>:
   10d90:	55                   	push   %ebp
   10d91:	89 e5                	mov    %esp,%ebp
   10d93:	57                   	push   %edi
   10d94:	56                   	push   %esi
   10d95:	53                   	push   %ebx
   10d96:	83 ec 04             	sub    $0x4,%esp
   10d99:	8b 4d 10             	mov    0x10(%ebp),%ecx
   10d9c:	8b 75 08             	mov    0x8(%ebp),%esi
   10d9f:	8b 55 0c             	mov    0xc(%ebp),%edx
   10da2:	83 f9 04             	cmp    $0x4,%ecx
   10da5:	7e 49                	jle    10df0 <copy_data+0x60>
   10da7:	8d 41 fb             	lea    -0x5(%ecx),%eax
   10daa:	89 d7                	mov    %edx,%edi
   10dac:	c1 e8 02             	shr    $0x2,%eax
   10daf:	8d 1c 85 04 00 00 00 	lea    0x4(,%eax,4),%ebx
   10db6:	89 45 f0             	mov    %eax,-0x10(%ebp)
   10db9:	8d 04 1e             	lea    (%esi,%ebx,1),%eax
   10dbc:	8d 74 26 00          	lea    0x0(%esi,%eiz,1),%esi
   10dc0:	a5                   	movsl  %ds:(%esi),%es:(%edi)
   10dc1:	39 c6                	cmp    %eax,%esi
   10dc3:	75 fb                	jne    10dc0 <copy_data+0x30>
   10dc5:	8b 75 f0             	mov    -0x10(%ebp),%esi
   10dc8:	01 da                	add    %ebx,%edx
   10dca:	f7 de                	neg    %esi
   10dcc:	8d 4c b1 fc          	lea    -0x4(%ecx,%esi,4),%ecx
   10dd0:	89 c6                	mov    %eax,%esi
   10dd2:	01 c1                	add    %eax,%ecx
   10dd4:	89 d7                	mov    %edx,%edi
   10dd6:	a4                   	movsb  %ds:(%esi),%es:(%edi)
   10dd7:	89 c8                	mov    %ecx,%eax
   10dd9:	29 f0                	sub    %esi,%eax
   10ddb:	85 c0                	test   %eax,%eax
   10ddd:	7f f7                	jg     10dd6 <copy_data+0x46>
   10ddf:	83 c4 04             	add    $0x4,%esp
   10de2:	5b                   	pop    %ebx
   10de3:	5e                   	pop    %esi
   10de4:	5f                   	pop    %edi
   10de5:	5d                   	pop    %ebp
   10de6:	c3                   	ret    
   10de7:	8d b4 26 00 00 00 00 	lea    0x0(%esi,%eiz,1),%esi
   10dee:	66 90                	xchg   %ax,%ax
   10df0:	85 c9                	test   %ecx,%ecx
   10df2:	7e eb                	jle    10ddf <copy_data+0x4f>
   10df4:	89 f0                	mov    %esi,%eax
   10df6:	eb d8                	jmp    10dd0 <copy_data+0x40>
   10df8:	8d b4 26 00 00 00 00 	lea    0x0(%esi,%eiz,1),%esi
   10dff:	90                   	nop

00010e00 <copy_from_user>:
   10e00:	55                   	push   %ebp
   10e01:	89 e5                	mov    %esp,%ebp
   10e03:	57                   	push   %edi
   10e04:	56                   	push   %esi
   10e05:	53                   	push   %ebx
   10e06:	83 ec 04             	sub    $0x4,%esp
   10e09:	8b 4d 10             	mov    0x10(%ebp),%ecx
   10e0c:	8b 75 08             	mov    0x8(%ebp),%esi
   10e0f:	8b 55 0c             	mov    0xc(%ebp),%edx
   10e12:	83 f9 04             	cmp    $0x4,%ecx
   10e15:	7e 49                	jle    10e60 <copy_from_user+0x60>
   10e17:	8d 41 fb             	lea    -0x5(%ecx),%eax
   10e1a:	89 d7                	mov    %edx,%edi
   10e1c:	c1 e8 02             	shr    $0x2,%eax
   10e1f:	8d 1c 85 04 00 00 00 	lea    0x4(,%eax,4),%ebx
   10e26:	89 45 f0             	mov    %eax,-0x10(%ebp)
   10e29:	8d 04 1e             	lea    (%esi,%ebx,1),%eax
   10e2c:	8d 74 26 00          	lea    0x0(%esi,%eiz,1),%esi
   10e30:	a5                   	movsl  %ds:(%esi),%es:(%edi)
   10e31:	39 c6                	cmp    %eax,%esi
   10e33:	75 fb                	jne    10e30 <copy_from_user+0x30>
   10e35:	8b 75 f0             	mov    -0x10(%ebp),%esi
   10e38:	01 da                	add    %ebx,%edx
   10e3a:	f7 de                	neg    %esi
   10e3c:	8d 4c b1 fc          	lea    -0x4(%ecx,%esi,4),%ecx
   10e40:	89 c6                	mov    %eax,%esi
   10e42:	01 c1                	add    %eax,%ecx
   10e44:	89 d7                	mov    %edx,%edi
   10e46:	a4                   	movsb  %ds:(%esi),%es:(%edi)
   10e47:	89 c8                	mov    %ecx,%eax
   10e49:	29 f0                	sub    %esi,%eax
   10e4b:	85 c0                	test   %eax,%eax
   10e4d:	7f f7                	jg     10e46 <copy_from_user+0x46>
   10e4f:	83 c4 04             	add    $0x4,%esp
   10e52:	31 c0                	xor    %eax,%eax
   10e54:	5b                   	pop    %ebx
   10e55:	5e                   	pop    %esi
   10e56:	5f                   	pop    %edi
   10e57:	5d                   	pop    %ebp
   10e58:	c3                   	ret    
   10e59:	8d b4 26 00 00 00 00 	lea    0x0(%esi,%eiz,1),%esi
   10e60:	85 c9                	test   %ecx,%ecx
   10e62:	7e eb                	jle    10e4f <copy_from_user+0x4f>
   10e64:	89 f0                	mov    %esi,%eax
   10e66:	eb d8                	jmp    10e40 <copy_from_user+0x40>
   10e68:	8d b4 26 00 00 00 00 	lea    0x0(%esi,%eiz,1),%esi
   10e6f:	90                   	nop

00010e70 <copy_to_user>:
   10e70:	55                   	push   %ebp
   10e71:	89 e5                	mov    %esp,%ebp
   10e73:	57                   	push   %edi
   10e74:	56                   	push   %esi
   10e75:	53                   	push   %ebx
   10e76:	83 ec 04             	sub    $0x4,%esp
   10e79:	8b 4d 10             	mov    0x10(%ebp),%ecx
   10e7c:	8b 75 08             	mov    0x8(%ebp),%esi
   10e7f:	8b 55 0c             	mov    0xc(%ebp),%edx
   10e82:	83 f9 04             	cmp    $0x4,%ecx
   10e85:	7e 49                	jle    10ed0 <copy_to_user+0x60>
   10e87:	8d 41 fb             	lea    -0x5(%ecx),%eax
   10e8a:	89 d7                	mov    %edx,%edi
   10e8c:	c1 e8 02             	shr    $0x2,%eax
   10e8f:	89 c3                	mov    %eax,%ebx
   10e91:	8d 04 85 04 00 00 00 	lea    0x4(,%eax,4),%eax
   10e98:	89 45 f0             	mov    %eax,-0x10(%ebp)
   10e9b:	01 f0                	add    %esi,%eax
   10e9d:	8d 76 00             	lea    0x0(%esi),%esi
   10ea0:	a5                   	movsl  %ds:(%esi),%es:(%edi)
   10ea1:	39 c6                	cmp    %eax,%esi
   10ea3:	75 fb                	jne    10ea0 <copy_to_user+0x30>
   10ea5:	f7 db                	neg    %ebx
   10ea7:	03 55 f0             	add    -0x10(%ebp),%edx
   10eaa:	8d 4c 99 fc          	lea    -0x4(%ecx,%ebx,4),%ecx
   10eae:	89 c6                	mov    %eax,%esi
   10eb0:	01 c1                	add    %eax,%ecx
   10eb2:	89 d7                	mov    %edx,%edi
   10eb4:	a4                   	movsb  %ds:(%esi),%es:(%edi)
   10eb5:	89 c8                	mov    %ecx,%eax
   10eb7:	29 f0                	sub    %esi,%eax
   10eb9:	85 c0                	test   %eax,%eax
   10ebb:	7f f7                	jg     10eb4 <copy_to_user+0x44>
   10ebd:	83 c4 04             	add    $0x4,%esp
   10ec0:	31 c0                	xor    %eax,%eax
   10ec2:	5b                   	pop    %ebx
   10ec3:	5e                   	pop    %esi
   10ec4:	5f                   	pop    %edi
   10ec5:	5d                   	pop    %ebp
   10ec6:	c3                   	ret    
   10ec7:	8d b4 26 00 00 00 00 	lea    0x0(%esi,%eiz,1),%esi
   10ece:	66 90                	xchg   %ax,%ax
   10ed0:	85 c9                	test   %ecx,%ecx
   10ed2:	7e e9                	jle    10ebd <copy_to_user+0x4d>
   10ed4:	89 f0                	mov    %esi,%eax
   10ed6:	eb d6                	jmp    10eae <copy_to_user+0x3e>
   10ed8:	8d b4 26 00 00 00 00 	lea    0x0(%esi,%eiz,1),%esi
   10edf:	90                   	nop

00010ee0 <access_ok>:
   10ee0:	55                   	push   %ebp
   10ee1:	31 d2                	xor    %edx,%edx
   10ee3:	89 e5                	mov    %esp,%ebp
   10ee5:	8b 45 0c             	mov    0xc(%ebp),%eax
   10ee8:	89 c1                	mov    %eax,%ecx
   10eea:	03 45 10             	add    0x10(%ebp),%eax
   10eed:	c1 e9 0c             	shr    $0xc,%ecx
   10ef0:	c1 e8 0c             	shr    $0xc,%eax
   10ef3:	39 c1                	cmp    %eax,%ecx
   10ef5:	77 1b                	ja     10f12 <access_ok+0x32>
   10ef7:	81 f9 ff 00 00 00    	cmp    $0xff,%ecx
   10efd:	0f 97 c1             	seta   %cl
   10f00:	83 7d 08 01          	cmpl   $0x1,0x8(%ebp)
   10f04:	74 1a                	je     10f20 <access_ok+0x40>
   10f06:	31 d2                	xor    %edx,%edx
   10f08:	3d 1c 01 00 00       	cmp    $0x11c,%eax
   10f0d:	0f 96 c2             	setbe  %dl
   10f10:	21 ca                	and    %ecx,%edx
   10f12:	89 d0                	mov    %edx,%eax
   10f14:	5d                   	pop    %ebp
   10f15:	c3                   	ret    
   10f16:	8d b4 26 00 00 00 00 	lea    0x0(%esi,%eiz,1),%esi
   10f1d:	8d 76 00             	lea    0x0(%esi),%esi
   10f20:	3d 14 01 00 00       	cmp    $0x114,%eax
   10f25:	77 df                	ja     10f06 <access_ok+0x26>
   10f27:	ba 01 00 00 00       	mov    $0x1,%edx
   10f2c:	84 c9                	test   %cl,%cl
   10f2e:	75 e2                	jne    10f12 <access_ok+0x32>
   10f30:	eb d4                	jmp    10f06 <access_ok+0x26>
   10f32:	8d b4 26 00 00 00 00 	lea    0x0(%esi,%eiz,1),%esi
   10f39:	8d b4 26 00 00 00 00 	lea    0x0(%esi,%eiz,1),%esi

00010f40 <get_ticks>:
   10f40:	55                   	push   %ebp
   10f41:	89 e5                	mov    %esp,%ebp
   10f43:	56                   	push   %esi
   10f44:	53                   	push   %ebx
   10f45:	0f 31                	rdtsc  
   10f47:	31 c9                	xor    %ecx,%ecx
   10f49:	89 d3                	mov    %edx,%ebx
   10f4b:	31 d2                	xor    %edx,%edx
   10f4d:	01 c8                	add    %ecx,%eax
   10f4f:	11 da                	adc    %ebx,%edx
   10f51:	31 db                	xor    %ebx,%ebx
   10f53:	89 c6                	mov    %eax,%esi
   10f55:	89 d1                	mov    %edx,%ecx
   10f57:	85 d2                	test   %edx,%edx
   10f59:	74 1b                	je     10f76 <get_ticks+0x36>
   10f5b:	bb a9 d7 7a 26       	mov    $0x267ad7a9,%ebx
   10f60:	89 d0                	mov    %edx,%eax
   10f62:	f7 e3                	mul    %ebx
   10f64:	89 d0                	mov    %edx,%eax
   10f66:	89 d3                	mov    %edx,%ebx
   10f68:	c1 e8 0e             	shr    $0xe,%eax
   10f6b:	c1 eb 0e             	shr    $0xe,%ebx
   10f6e:	69 c0 c8 a9 01 00    	imul   $0x1a9c8,%eax,%eax
   10f74:	29 c1                	sub    %eax,%ecx
   10f76:	89 f0                	mov    %esi,%eax
   10f78:	89 ca                	mov    %ecx,%edx
   10f7a:	b9 c8 a9 01 00       	mov    $0x1a9c8,%ecx
   10f7f:	f7 f1                	div    %ecx
   10f81:	89 da                	mov    %ebx,%edx
   10f83:	5b                   	pop    %ebx
   10f84:	5e                   	pop    %esi
   10f85:	5d                   	pop    %ebp
   10f86:	c3                   	ret    
   10f87:	66 90                	xchg   %ax,%ax
   10f89:	66 90                	xchg   %ax,%ax
   10f8b:	66 90                	xchg   %ax,%ax
   10f8d:	66 90                	xchg   %ax,%ax
   10f8f:	90                   	nop

00010f90 <get_eflags>:
   10f90:	9c                   	pushf  
   10f91:	58                   	pop    %eax
   10f92:	c3                   	ret    
   10f93:	8d b4 26 00 00 00 00 	lea    0x0(%esi,%eiz,1),%esi
   10f9a:	8d b6 00 00 00 00    	lea    0x0(%esi),%esi

00010fa0 <set_eflags>:
   10fa0:	6a 00                	push   $0x0
   10fa2:	9d                   	popf   
   10fa3:	c3                   	ret    
   10fa4:	8d b4 26 00 00 00 00 	lea    0x0(%esi,%eiz,1),%esi
   10fab:	8d 74 26 00          	lea    0x0(%esi,%eiz,1),%esi
   10faf:	90                   	nop

00010fb0 <set_idt_reg>:
   10fb0:	55                   	push   %ebp
   10fb1:	89 e5                	mov    %esp,%ebp
   10fb3:	8b 45 08             	mov    0x8(%ebp),%eax
   10fb6:	0f 01 18             	lidtl  (%eax)
   10fb9:	5d                   	pop    %ebp
   10fba:	c3                   	ret    
   10fbb:	8d 74 26 00          	lea    0x0(%esi,%eiz,1),%esi
   10fbf:	90                   	nop

00010fc0 <set_gdt_reg>:
   10fc0:	55                   	push   %ebp
   10fc1:	89 e5                	mov    %esp,%ebp
   10fc3:	8b 45 08             	mov    0x8(%ebp),%eax
   10fc6:	0f 01 10             	lgdtl  (%eax)
   10fc9:	5d                   	pop    %ebp
   10fca:	c3                   	ret    
   10fcb:	8d 74 26 00          	lea    0x0(%esi,%eiz,1),%esi
   10fcf:	90                   	nop

00010fd0 <set_ldt_reg>:
   10fd0:	55                   	push   %ebp
   10fd1:	89 e5                	mov    %esp,%ebp
   10fd3:	0f b7 45 08          	movzwl 0x8(%ebp),%eax
   10fd7:	0f 00 d0             	lldt   %ax
   10fda:	5d                   	pop    %ebp
   10fdb:	c3                   	ret    
   10fdc:	8d 74 26 00          	lea    0x0(%esi,%eiz,1),%esi

00010fe0 <set_task_reg>:
   10fe0:	55                   	push   %ebp
   10fe1:	89 e5                	mov    %esp,%ebp
   10fe3:	0f b7 45 08          	movzwl 0x8(%ebp),%eax
   10fe7:	0f 00 d8             	ltr    %ax
   10fea:	5d                   	pop    %ebp
   10feb:	c3                   	ret    
   10fec:	8d 74 26 00          	lea    0x0(%esi,%eiz,1),%esi

00010ff0 <return_gate>:
   10ff0:	55                   	push   %ebp
   10ff1:	89 e5                	mov    %esp,%ebp
   10ff3:	83 ec 0c             	sub    $0xc,%esp
   10ff6:	8b 45 08             	mov    0x8(%ebp),%eax
   10ff9:	66 89 45 fc          	mov    %ax,-0x4(%ebp)
   10ffd:	8b 45 0c             	mov    0xc(%ebp),%eax
   11000:	66 89 45 f8          	mov    %ax,-0x8(%ebp)
   11004:	8b 45 14             	mov    0x14(%ebp),%eax
   11007:	66 89 45 f4          	mov    %ax,-0xc(%ebp)
   1100b:	a1 e0 29 01 00       	mov    0x129e0,%eax
   11010:	8b 10                	mov    (%eax),%edx
   11012:	8e 45 fc             	mov    -0x4(%ebp),%es
   11015:	8e 5d fc             	mov    -0x4(%ebp),%ds
   11018:	8b 45 10             	mov    0x10(%ebp),%eax
   1101b:	83 c0 0c             	add    $0xc,%eax
   1101e:	89 10                	mov    %edx,(%eax)
   11020:	ff 75 f8             	push   -0x8(%ebp)
   11023:	ff 75 10             	push   0x10(%ebp)
   11026:	ff 75 f4             	push   -0xc(%ebp)
   11029:	ff 75 18             	push   0x18(%ebp)
   1102c:	cb                   	lret   
   1102d:	c9                   	leave  
   1102e:	c3                   	ret    
   1102f:	90                   	nop

00011030 <enable_int>:
   11030:	b0 fc                	mov    $0xfc,%al
   11032:	e6 21                	out    %al,$0x21
   11034:	e8 07 00 00 00       	call   11040 <delay>
   11039:	fb                   	sti    
   1103a:	c3                   	ret    
   1103b:	8d 74 26 00          	lea    0x0(%esi,%eiz,1),%esi
   1103f:	90                   	nop

00011040 <delay>:
   11040:	eb 00                	jmp    11042 <a>

00011042 <a>:
   11042:	c3                   	ret    
   11043:	66 90                	xchg   %ax,%ax
   11045:	66 90                	xchg   %ax,%ax
   11047:	66 90                	xchg   %ax,%ax
   11049:	66 90                	xchg   %ax,%ax
   1104b:	66 90                	xchg   %ax,%ax
   1104d:	66 90                	xchg   %ax,%ax
   1104f:	90                   	nop

00011050 <INIT_LIST_HEAD>:
   11050:	55                   	push   %ebp
   11051:	89 e5                	mov    %esp,%ebp
   11053:	8b 45 08             	mov    0x8(%ebp),%eax
   11056:	89 00                	mov    %eax,(%eax)
   11058:	89 40 04             	mov    %eax,0x4(%eax)
   1105b:	5d                   	pop    %ebp
   1105c:	c3                   	ret    
   1105d:	8d 76 00             	lea    0x0(%esi),%esi

00011060 <list_add>:
   11060:	55                   	push   %ebp
   11061:	89 e5                	mov    %esp,%ebp
   11063:	8b 55 0c             	mov    0xc(%ebp),%edx
   11066:	8b 45 08             	mov    0x8(%ebp),%eax
   11069:	8b 0a                	mov    (%edx),%ecx
   1106b:	89 41 04             	mov    %eax,0x4(%ecx)
   1106e:	89 08                	mov    %ecx,(%eax)
   11070:	89 50 04             	mov    %edx,0x4(%eax)
   11073:	89 02                	mov    %eax,(%edx)
   11075:	5d                   	pop    %ebp
   11076:	c3                   	ret    
   11077:	8d b4 26 00 00 00 00 	lea    0x0(%esi,%eiz,1),%esi
   1107e:	66 90                	xchg   %ax,%ax

00011080 <list_add_tail>:
   11080:	55                   	push   %ebp
   11081:	89 e5                	mov    %esp,%ebp
   11083:	8b 55 0c             	mov    0xc(%ebp),%edx
   11086:	8b 45 08             	mov    0x8(%ebp),%eax
   11089:	8b 4a 04             	mov    0x4(%edx),%ecx
   1108c:	89 42 04             	mov    %eax,0x4(%edx)
   1108f:	89 10                	mov    %edx,(%eax)
   11091:	89 48 04             	mov    %ecx,0x4(%eax)
   11094:	89 01                	mov    %eax,(%ecx)
   11096:	5d                   	pop    %ebp
   11097:	c3                   	ret    
   11098:	8d b4 26 00 00 00 00 	lea    0x0(%esi,%eiz,1),%esi
   1109f:	90                   	nop

000110a0 <list_del>:
   110a0:	55                   	push   %ebp
   110a1:	89 e5                	mov    %esp,%ebp
   110a3:	8b 45 08             	mov    0x8(%ebp),%eax
   110a6:	8b 08                	mov    (%eax),%ecx
   110a8:	8b 50 04             	mov    0x4(%eax),%edx
   110ab:	89 51 04             	mov    %edx,0x4(%ecx)
   110ae:	89 0a                	mov    %ecx,(%edx)
   110b0:	c7 00 00 00 00 00    	movl   $0x0,(%eax)
   110b6:	c7 40 04 00 00 00 00 	movl   $0x0,0x4(%eax)
   110bd:	5d                   	pop    %ebp
   110be:	c3                   	ret    
   110bf:	90                   	nop

000110c0 <list_is_last>:
   110c0:	55                   	push   %ebp
   110c1:	89 e5                	mov    %esp,%ebp
   110c3:	8b 45 08             	mov    0x8(%ebp),%eax
   110c6:	8b 55 0c             	mov    0xc(%ebp),%edx
   110c9:	5d                   	pop    %ebp
   110ca:	39 10                	cmp    %edx,(%eax)
   110cc:	0f 94 c0             	sete   %al
   110cf:	0f b6 c0             	movzbl %al,%eax
   110d2:	c3                   	ret    
   110d3:	8d b4 26 00 00 00 00 	lea    0x0(%esi,%eiz,1),%esi
   110da:	8d b6 00 00 00 00    	lea    0x0(%esi),%esi

000110e0 <list_empty>:
   110e0:	55                   	push   %ebp
   110e1:	89 e5                	mov    %esp,%ebp
   110e3:	8b 45 08             	mov    0x8(%ebp),%eax
   110e6:	5d                   	pop    %ebp
   110e7:	39 00                	cmp    %eax,(%eax)
   110e9:	0f 94 c0             	sete   %al
   110ec:	0f b6 c0             	movzbl %al,%eax
   110ef:	c3                   	ret    

000110f0 <itoa.part.0>:
   110f0:	55                   	push   %ebp
   110f1:	89 e5                	mov    %esp,%ebp
   110f3:	57                   	push   %edi
   110f4:	56                   	push   %esi
   110f5:	89 d6                	mov    %edx,%esi
   110f7:	53                   	push   %ebx
   110f8:	83 ec 04             	sub    $0x4,%esp
   110fb:	85 c0                	test   %eax,%eax
   110fd:	7e 71                	jle    11170 <itoa.part.0+0x80>
   110ff:	89 c3                	mov    %eax,%ebx
   11101:	31 c9                	xor    %ecx,%ecx
   11103:	8d 74 26 00          	lea    0x0(%esi,%eiz,1),%esi
   11107:	90                   	nop
   11108:	b8 cd cc cc cc       	mov    $0xcccccccd,%eax
   1110d:	89 4d f0             	mov    %ecx,-0x10(%ebp)
   11110:	f7 e3                	mul    %ebx
   11112:	89 d8                	mov    %ebx,%eax
   11114:	c1 ea 03             	shr    $0x3,%edx
   11117:	8d 3c 92             	lea    (%edx,%edx,4),%edi
   1111a:	01 ff                	add    %edi,%edi
   1111c:	29 f8                	sub    %edi,%eax
   1111e:	83 c0 30             	add    $0x30,%eax
   11121:	88 04 0e             	mov    %al,(%esi,%ecx,1)
   11124:	89 d8                	mov    %ebx,%eax
   11126:	83 c1 01             	add    $0x1,%ecx
   11129:	89 d3                	mov    %edx,%ebx
   1112b:	8d 3c 0e             	lea    (%esi,%ecx,1),%edi
   1112e:	89 f2                	mov    %esi,%edx
   11130:	83 f8 09             	cmp    $0x9,%eax
   11133:	7f d3                	jg     11108 <itoa.part.0+0x18>
   11135:	d1 f9                	sar    %ecx
   11137:	74 25                	je     1115e <itoa.part.0+0x6e>
   11139:	8b 5d f0             	mov    -0x10(%ebp),%ebx
   1113c:	01 f1                	add    %esi,%ecx
   1113e:	01 f3                	add    %esi,%ebx
   11140:	89 ce                	mov    %ecx,%esi
   11142:	8d b6 00 00 00 00    	lea    0x0(%esi),%esi
   11148:	0f b6 0b             	movzbl (%ebx),%ecx
   1114b:	0f b6 02             	movzbl (%edx),%eax
   1114e:	83 c2 01             	add    $0x1,%edx
   11151:	83 eb 01             	sub    $0x1,%ebx
   11154:	88 4a ff             	mov    %cl,-0x1(%edx)
   11157:	88 43 01             	mov    %al,0x1(%ebx)
   1115a:	39 d6                	cmp    %edx,%esi
   1115c:	75 ea                	jne    11148 <itoa.part.0+0x58>
   1115e:	c6 07 00             	movb   $0x0,(%edi)
   11161:	83 c4 04             	add    $0x4,%esp
   11164:	5b                   	pop    %ebx
   11165:	5e                   	pop    %esi
   11166:	5f                   	pop    %edi
   11167:	5d                   	pop    %ebp
   11168:	c3                   	ret    
   11169:	8d b4 26 00 00 00 00 	lea    0x0(%esi,%eiz,1),%esi
   11170:	89 d7                	mov    %edx,%edi
   11172:	c6 07 00             	movb   $0x0,(%edi)
   11175:	83 c4 04             	add    $0x4,%esp
   11178:	5b                   	pop    %ebx
   11179:	5e                   	pop    %esi
   1117a:	5f                   	pop    %edi
   1117b:	5d                   	pop    %ebp
   1117c:	c3                   	ret    
   1117d:	8d 76 00             	lea    0x0(%esi),%esi

00011180 <itoa>:
   11180:	55                   	push   %ebp
   11181:	89 e5                	mov    %esp,%ebp
   11183:	8b 45 08             	mov    0x8(%ebp),%eax
   11186:	8b 55 0c             	mov    0xc(%ebp),%edx
   11189:	85 c0                	test   %eax,%eax
   1118b:	74 0b                	je     11198 <itoa+0x18>
   1118d:	5d                   	pop    %ebp
   1118e:	e9 5d ff ff ff       	jmp    110f0 <itoa.part.0>
   11193:	8d 74 26 00          	lea    0x0(%esi,%eiz,1),%esi
   11197:	90                   	nop
   11198:	b8 30 00 00 00       	mov    $0x30,%eax
   1119d:	66 89 02             	mov    %ax,(%edx)
   111a0:	5d                   	pop    %ebp
   111a1:	c3                   	ret    
   111a2:	8d b4 26 00 00 00 00 	lea    0x0(%esi,%eiz,1),%esi
   111a9:	8d b4 26 00 00 00 00 	lea    0x0(%esi,%eiz,1),%esi

000111b0 <zeos_show_clock>:
   111b0:	a1 50 39 01 00       	mov    0x13950,%eax
   111b5:	83 c0 01             	add    $0x1,%eax
   111b8:	a3 50 39 01 00       	mov    %eax,0x13950
   111bd:	83 f8 12             	cmp    $0x12,%eax
   111c0:	74 06                	je     111c8 <zeos_show_clock+0x18>
   111c2:	c3                   	ret    
   111c3:	8d 74 26 00          	lea    0x0(%esi,%eiz,1),%esi
   111c7:	90                   	nop
   111c8:	55                   	push   %ebp
   111c9:	89 e5                	mov    %esp,%ebp
   111cb:	83 ec 10             	sub    $0x10,%esp
   111ce:	a1 4c 39 01 00       	mov    0x1394c,%eax
   111d3:	c7 05 50 39 01 00 00 	movl   $0x0,0x13950
   111da:	00 00 00 
   111dd:	8b 0d 48 39 01 00    	mov    0x13948,%ecx
   111e3:	83 c0 01             	add    $0x1,%eax
   111e6:	a3 4c 39 01 00       	mov    %eax,0x1394c
   111eb:	83 f8 3c             	cmp    $0x3c,%eax
   111ee:	75 13                	jne    11203 <zeos_show_clock+0x53>
   111f0:	c7 05 4c 39 01 00 00 	movl   $0x0,0x1394c
   111f7:	00 00 00 
   111fa:	83 c1 01             	add    $0x1,%ecx
   111fd:	89 0d 48 39 01 00    	mov    %ecx,0x13948
   11203:	85 c9                	test   %ecx,%ecx
   11205:	0f 84 c5 00 00 00    	je     112d0 <zeos_show_clock+0x120>
   1120b:	8d 55 f8             	lea    -0x8(%ebp),%edx
   1120e:	89 c8                	mov    %ecx,%eax
   11210:	e8 db fe ff ff       	call   110f0 <itoa.part.0>
   11215:	a1 4c 39 01 00       	mov    0x1394c,%eax
   1121a:	85 c0                	test   %eax,%eax
   1121c:	0f 84 9e 00 00 00    	je     112c0 <zeos_show_clock+0x110>
   11222:	8d 55 fc             	lea    -0x4(%ebp),%edx
   11225:	e8 c6 fe ff ff       	call   110f0 <itoa.part.0>
   1122a:	a1 4c 39 01 00       	mov    0x1394c,%eax
   1122f:	83 3d 48 39 01 00 09 	cmpl   $0x9,0x13948
   11236:	7f 48                	jg     11280 <zeos_show_clock+0xd0>
   11238:	b9 30 02 00 00       	mov    $0x230,%ecx
   1123d:	66 89 0d 8c 80 0b 00 	mov    %cx,0xb808c
   11244:	0f b6 55 f8          	movzbl -0x8(%ebp),%edx
   11248:	80 ce 02             	or     $0x2,%dh
   1124b:	66 89 15 8e 80 0b 00 	mov    %dx,0xb808e
   11252:	ba 3a 02 00 00       	mov    $0x23a,%edx
   11257:	66 89 15 90 80 0b 00 	mov    %dx,0xb8090
   1125e:	83 f8 09             	cmp    $0x9,%eax
   11261:	7e 3d                	jle    112a0 <zeos_show_clock+0xf0>
   11263:	0f b6 45 fc          	movzbl -0x4(%ebp),%eax
   11267:	80 cc 02             	or     $0x2,%ah
   1126a:	66 a3 92 80 0b 00    	mov    %ax,0xb8092
   11270:	0f b6 45 fd          	movzbl -0x3(%ebp),%eax
   11274:	80 cc 02             	or     $0x2,%ah
   11277:	66 a3 94 80 0b 00    	mov    %ax,0xb8094
   1127d:	c9                   	leave  
   1127e:	c3                   	ret    
   1127f:	90                   	nop
   11280:	0f b6 55 f8          	movzbl -0x8(%ebp),%edx
   11284:	80 ce 02             	or     $0x2,%dh
   11287:	66 89 15 8c 80 0b 00 	mov    %dx,0xb808c
   1128e:	0f b6 55 f9          	movzbl -0x7(%ebp),%edx
   11292:	80 ce 02             	or     $0x2,%dh
   11295:	66 89 15 8e 80 0b 00 	mov    %dx,0xb808e
   1129c:	eb b4                	jmp    11252 <zeos_show_clock+0xa2>
   1129e:	66 90                	xchg   %ax,%ax
   112a0:	b8 30 02 00 00       	mov    $0x230,%eax
   112a5:	66 a3 92 80 0b 00    	mov    %ax,0xb8092
   112ab:	0f b6 45 fc          	movzbl -0x4(%ebp),%eax
   112af:	80 cc 02             	or     $0x2,%ah
   112b2:	66 a3 94 80 0b 00    	mov    %ax,0xb8094
   112b8:	c9                   	leave  
   112b9:	c3                   	ret    
   112ba:	8d b6 00 00 00 00    	lea    0x0(%esi),%esi
   112c0:	ba 30 00 00 00       	mov    $0x30,%edx
   112c5:	66 89 55 fc          	mov    %dx,-0x4(%ebp)
   112c9:	e9 61 ff ff ff       	jmp    1122f <zeos_show_clock+0x7f>
   112ce:	66 90                	xchg   %ax,%ax
   112d0:	b9 30 00 00 00       	mov    $0x30,%ecx
   112d5:	66 89 4d f8          	mov    %cx,-0x8(%ebp)
   112d9:	e9 37 ff ff ff       	jmp    11215 <zeos_show_clock+0x65>
   112de:	66 90                	xchg   %ax,%ax

000112e0 <exception_msg>:
   112e0:	55                   	push   %ebp
   112e1:	89 e5                	mov    %esp,%ebp
   112e3:	83 ec 14             	sub    $0x14,%esp
   112e6:	68 88 27 01 00       	push   $0x12788
   112eb:	e8 c0 f2 ff ff       	call   105b0 <printk>
   112f0:	83 c4 10             	add    $0x10,%esp
   112f3:	c9                   	leave  
   112f4:	c3                   	ret    
   112f5:	8d b4 26 00 00 00 00 	lea    0x0(%esi,%eiz,1),%esi
   112fc:	8d 74 26 00          	lea    0x0(%esi,%eiz,1),%esi

00011300 <divide_error_routine>:
   11300:	55                   	push   %ebp
   11301:	89 e5                	mov    %esp,%ebp
   11303:	83 ec 14             	sub    $0x14,%esp
   11306:	68 d2 1a 01 00       	push   $0x11ad2
   1130b:	e8 a0 f2 ff ff       	call   105b0 <printk>
   11310:	c7 04 24 88 27 01 00 	movl   $0x12788,(%esp)
   11317:	e8 94 f2 ff ff       	call   105b0 <printk>
   1131c:	83 c4 10             	add    $0x10,%esp
   1131f:	eb fe                	jmp    1131f <divide_error_routine+0x1f>
   11321:	8d b4 26 00 00 00 00 	lea    0x0(%esi,%eiz,1),%esi
   11328:	8d b4 26 00 00 00 00 	lea    0x0(%esi,%eiz,1),%esi
   1132f:	90                   	nop

00011330 <debug_routine>:
   11330:	55                   	push   %ebp
   11331:	89 e5                	mov    %esp,%ebp
   11333:	83 ec 14             	sub    $0x14,%esp
   11336:	68 e7 1a 01 00       	push   $0x11ae7
   1133b:	e8 70 f2 ff ff       	call   105b0 <printk>
   11340:	c7 04 24 88 27 01 00 	movl   $0x12788,(%esp)
   11347:	e8 64 f2 ff ff       	call   105b0 <printk>
   1134c:	83 c4 10             	add    $0x10,%esp
   1134f:	eb fe                	jmp    1134f <debug_routine+0x1f>
   11351:	8d b4 26 00 00 00 00 	lea    0x0(%esi,%eiz,1),%esi
   11358:	8d b4 26 00 00 00 00 	lea    0x0(%esi,%eiz,1),%esi
   1135f:	90                   	nop

00011360 <nm1_routine>:
   11360:	55                   	push   %ebp
   11361:	89 e5                	mov    %esp,%ebp
   11363:	83 ec 14             	sub    $0x14,%esp
   11366:	68 f5 1a 01 00       	push   $0x11af5
   1136b:	e8 40 f2 ff ff       	call   105b0 <printk>
   11370:	c7 04 24 88 27 01 00 	movl   $0x12788,(%esp)
   11377:	e8 34 f2 ff ff       	call   105b0 <printk>
   1137c:	83 c4 10             	add    $0x10,%esp
   1137f:	eb fe                	jmp    1137f <nm1_routine+0x1f>
   11381:	8d b4 26 00 00 00 00 	lea    0x0(%esi,%eiz,1),%esi
   11388:	8d b4 26 00 00 00 00 	lea    0x0(%esi,%eiz,1),%esi
   1138f:	90                   	nop

00011390 <breakpoint_routine>:
   11390:	55                   	push   %ebp
   11391:	89 e5                	mov    %esp,%ebp
   11393:	83 ec 14             	sub    $0x14,%esp
   11396:	68 01 1b 01 00       	push   $0x11b01
   1139b:	e8 10 f2 ff ff       	call   105b0 <printk>
   113a0:	c7 04 24 88 27 01 00 	movl   $0x12788,(%esp)
   113a7:	e8 04 f2 ff ff       	call   105b0 <printk>
   113ac:	83 c4 10             	add    $0x10,%esp
   113af:	eb fe                	jmp    113af <breakpoint_routine+0x1f>
   113b1:	8d b4 26 00 00 00 00 	lea    0x0(%esi,%eiz,1),%esi
   113b8:	8d b4 26 00 00 00 00 	lea    0x0(%esi,%eiz,1),%esi
   113bf:	90                   	nop

000113c0 <overflow_routine>:
   113c0:	55                   	push   %ebp
   113c1:	89 e5                	mov    %esp,%ebp
   113c3:	83 ec 14             	sub    $0x14,%esp
   113c6:	68 14 1b 01 00       	push   $0x11b14
   113cb:	e8 e0 f1 ff ff       	call   105b0 <printk>
   113d0:	c7 04 24 88 27 01 00 	movl   $0x12788,(%esp)
   113d7:	e8 d4 f1 ff ff       	call   105b0 <printk>
   113dc:	83 c4 10             	add    $0x10,%esp
   113df:	eb fe                	jmp    113df <overflow_routine+0x1f>
   113e1:	8d b4 26 00 00 00 00 	lea    0x0(%esi,%eiz,1),%esi
   113e8:	8d b4 26 00 00 00 00 	lea    0x0(%esi,%eiz,1),%esi
   113ef:	90                   	nop

000113f0 <bounds_check_routine>:
   113f0:	55                   	push   %ebp
   113f1:	89 e5                	mov    %esp,%ebp
   113f3:	83 ec 14             	sub    $0x14,%esp
   113f6:	68 25 1b 01 00       	push   $0x11b25
   113fb:	e8 b0 f1 ff ff       	call   105b0 <printk>
   11400:	c7 04 24 88 27 01 00 	movl   $0x12788,(%esp)
   11407:	e8 a4 f1 ff ff       	call   105b0 <printk>
   1140c:	83 c4 10             	add    $0x10,%esp
   1140f:	eb fe                	jmp    1140f <bounds_check_routine+0x1f>
   11411:	8d b4 26 00 00 00 00 	lea    0x0(%esi,%eiz,1),%esi
   11418:	8d b4 26 00 00 00 00 	lea    0x0(%esi,%eiz,1),%esi
   1141f:	90                   	nop

00011420 <invalid_opcode_routine>:
   11420:	55                   	push   %ebp
   11421:	89 e5                	mov    %esp,%ebp
   11423:	83 ec 14             	sub    $0x14,%esp
   11426:	68 3a 1b 01 00       	push   $0x11b3a
   1142b:	e8 80 f1 ff ff       	call   105b0 <printk>
   11430:	c7 04 24 88 27 01 00 	movl   $0x12788,(%esp)
   11437:	e8 74 f1 ff ff       	call   105b0 <printk>
   1143c:	83 c4 10             	add    $0x10,%esp
   1143f:	eb fe                	jmp    1143f <invalid_opcode_routine+0x1f>
   11441:	8d b4 26 00 00 00 00 	lea    0x0(%esi,%eiz,1),%esi
   11448:	8d b4 26 00 00 00 00 	lea    0x0(%esi,%eiz,1),%esi
   1144f:	90                   	nop

00011450 <device_not_available_routine>:
   11450:	55                   	push   %ebp
   11451:	89 e5                	mov    %esp,%ebp
   11453:	83 ec 14             	sub    $0x14,%esp
   11456:	68 51 1b 01 00       	push   $0x11b51
   1145b:	e8 50 f1 ff ff       	call   105b0 <printk>
   11460:	c7 04 24 88 27 01 00 	movl   $0x12788,(%esp)
   11467:	e8 44 f1 ff ff       	call   105b0 <printk>
   1146c:	83 c4 10             	add    $0x10,%esp
   1146f:	eb fe                	jmp    1146f <device_not_available_routine+0x1f>
   11471:	8d b4 26 00 00 00 00 	lea    0x0(%esi,%eiz,1),%esi
   11478:	8d b4 26 00 00 00 00 	lea    0x0(%esi,%eiz,1),%esi
   1147f:	90                   	nop

00011480 <double_fault_routine>:
   11480:	55                   	push   %ebp
   11481:	89 e5                	mov    %esp,%ebp
   11483:	83 ec 14             	sub    $0x14,%esp
   11486:	68 6e 1b 01 00       	push   $0x11b6e
   1148b:	e8 20 f1 ff ff       	call   105b0 <printk>
   11490:	c7 04 24 88 27 01 00 	movl   $0x12788,(%esp)
   11497:	e8 14 f1 ff ff       	call   105b0 <printk>
   1149c:	83 c4 10             	add    $0x10,%esp
   1149f:	eb fe                	jmp    1149f <double_fault_routine+0x1f>
   114a1:	8d b4 26 00 00 00 00 	lea    0x0(%esi,%eiz,1),%esi
   114a8:	8d b4 26 00 00 00 00 	lea    0x0(%esi,%eiz,1),%esi
   114af:	90                   	nop

000114b0 <coprocessor_segment_overrun_routine>:
   114b0:	55                   	push   %ebp
   114b1:	89 e5                	mov    %esp,%ebp
   114b3:	83 ec 14             	sub    $0x14,%esp
   114b6:	68 b8 29 01 00       	push   $0x129b8
   114bb:	e8 f0 f0 ff ff       	call   105b0 <printk>
   114c0:	c7 04 24 88 27 01 00 	movl   $0x12788,(%esp)
   114c7:	e8 e4 f0 ff ff       	call   105b0 <printk>
   114cc:	83 c4 10             	add    $0x10,%esp
   114cf:	eb fe                	jmp    114cf <coprocessor_segment_overrun_routine+0x1f>
   114d1:	8d b4 26 00 00 00 00 	lea    0x0(%esi,%eiz,1),%esi
   114d8:	8d b4 26 00 00 00 00 	lea    0x0(%esi,%eiz,1),%esi
   114df:	90                   	nop

000114e0 <invalid_tss_routine>:
   114e0:	55                   	push   %ebp
   114e1:	89 e5                	mov    %esp,%ebp
   114e3:	83 ec 14             	sub    $0x14,%esp
   114e6:	68 7d 1b 01 00       	push   $0x11b7d
   114eb:	e8 c0 f0 ff ff       	call   105b0 <printk>
   114f0:	c7 04 24 88 27 01 00 	movl   $0x12788,(%esp)
   114f7:	e8 b4 f0 ff ff       	call   105b0 <printk>
   114fc:	83 c4 10             	add    $0x10,%esp
   114ff:	eb fe                	jmp    114ff <invalid_tss_routine+0x1f>
   11501:	8d b4 26 00 00 00 00 	lea    0x0(%esi,%eiz,1),%esi
   11508:	8d b4 26 00 00 00 00 	lea    0x0(%esi,%eiz,1),%esi
   1150f:	90                   	nop

00011510 <segment_not_present_routine>:
   11510:	55                   	push   %ebp
   11511:	89 e5                	mov    %esp,%ebp
   11513:	83 ec 14             	sub    $0x14,%esp
   11516:	68 91 1b 01 00       	push   $0x11b91
   1151b:	e8 90 f0 ff ff       	call   105b0 <printk>
   11520:	c7 04 24 88 27 01 00 	movl   $0x12788,(%esp)
   11527:	e8 84 f0 ff ff       	call   105b0 <printk>
   1152c:	83 c4 10             	add    $0x10,%esp
   1152f:	eb fe                	jmp    1152f <segment_not_present_routine+0x1f>
   11531:	8d b4 26 00 00 00 00 	lea    0x0(%esi,%eiz,1),%esi
   11538:	8d b4 26 00 00 00 00 	lea    0x0(%esi,%eiz,1),%esi
   1153f:	90                   	nop

00011540 <stack_exception_routine>:
   11540:	55                   	push   %ebp
   11541:	89 e5                	mov    %esp,%ebp
   11543:	83 ec 14             	sub    $0x14,%esp
   11546:	68 ad 1b 01 00       	push   $0x11bad
   1154b:	e8 60 f0 ff ff       	call   105b0 <printk>
   11550:	c7 04 24 88 27 01 00 	movl   $0x12788,(%esp)
   11557:	e8 54 f0 ff ff       	call   105b0 <printk>
   1155c:	83 c4 10             	add    $0x10,%esp
   1155f:	eb fe                	jmp    1155f <stack_exception_routine+0x1f>
   11561:	8d b4 26 00 00 00 00 	lea    0x0(%esi,%eiz,1),%esi
   11568:	8d b4 26 00 00 00 00 	lea    0x0(%esi,%eiz,1),%esi
   1156f:	90                   	nop

00011570 <general_protection_routine>:
   11570:	55                   	push   %ebp
   11571:	89 e5                	mov    %esp,%ebp
   11573:	83 ec 14             	sub    $0x14,%esp
   11576:	68 c5 1b 01 00       	push   $0x11bc5
   1157b:	e8 30 f0 ff ff       	call   105b0 <printk>
   11580:	c7 04 24 88 27 01 00 	movl   $0x12788,(%esp)
   11587:	e8 24 f0 ff ff       	call   105b0 <printk>
   1158c:	83 c4 10             	add    $0x10,%esp
   1158f:	eb fe                	jmp    1158f <general_protection_routine+0x1f>
   11591:	8d b4 26 00 00 00 00 	lea    0x0(%esi,%eiz,1),%esi
   11598:	8d b4 26 00 00 00 00 	lea    0x0(%esi,%eiz,1),%esi
   1159f:	90                   	nop

000115a0 <page_fault_routine>:
   115a0:	55                   	push   %ebp
   115a1:	89 e5                	mov    %esp,%ebp
   115a3:	83 ec 14             	sub    $0x14,%esp
   115a6:	68 e0 1b 01 00       	push   $0x11be0
   115ab:	e8 00 f0 ff ff       	call   105b0 <printk>
   115b0:	c7 04 24 88 27 01 00 	movl   $0x12788,(%esp)
   115b7:	e8 f4 ef ff ff       	call   105b0 <printk>
   115bc:	83 c4 10             	add    $0x10,%esp
   115bf:	eb fe                	jmp    115bf <page_fault_routine+0x1f>
   115c1:	8d b4 26 00 00 00 00 	lea    0x0(%esi,%eiz,1),%esi
   115c8:	8d b4 26 00 00 00 00 	lea    0x0(%esi,%eiz,1),%esi
   115cf:	90                   	nop

000115d0 <intel_reserved_routine>:
   115d0:	55                   	push   %ebp
   115d1:	89 e5                	mov    %esp,%ebp
   115d3:	83 ec 14             	sub    $0x14,%esp
   115d6:	68 ed 1b 01 00       	push   $0x11bed
   115db:	e8 d0 ef ff ff       	call   105b0 <printk>
   115e0:	c7 04 24 88 27 01 00 	movl   $0x12788,(%esp)
   115e7:	e8 c4 ef ff ff       	call   105b0 <printk>
   115ec:	83 c4 10             	add    $0x10,%esp
   115ef:	eb fe                	jmp    115ef <intel_reserved_routine+0x1f>
   115f1:	8d b4 26 00 00 00 00 	lea    0x0(%esi,%eiz,1),%esi
   115f8:	8d b4 26 00 00 00 00 	lea    0x0(%esi,%eiz,1),%esi
   115ff:	90                   	nop

00011600 <floating_point_error_routine>:
   11600:	55                   	push   %ebp
   11601:	89 e5                	mov    %esp,%ebp
   11603:	83 ec 14             	sub    $0x14,%esp
   11606:	68 04 1c 01 00       	push   $0x11c04
   1160b:	e8 a0 ef ff ff       	call   105b0 <printk>
   11610:	c7 04 24 88 27 01 00 	movl   $0x12788,(%esp)
   11617:	e8 94 ef ff ff       	call   105b0 <printk>
   1161c:	83 c4 10             	add    $0x10,%esp
   1161f:	eb fe                	jmp    1161f <floating_point_error_routine+0x1f>
   11621:	8d b4 26 00 00 00 00 	lea    0x0(%esi,%eiz,1),%esi
   11628:	8d b4 26 00 00 00 00 	lea    0x0(%esi,%eiz,1),%esi
   1162f:	90                   	nop

00011630 <alignment_check_routine>:
   11630:	55                   	push   %ebp
   11631:	89 e5                	mov    %esp,%ebp
   11633:	83 ec 14             	sub    $0x14,%esp
   11636:	68 1b 1c 01 00       	push   $0x11c1b
   1163b:	e8 70 ef ff ff       	call   105b0 <printk>
   11640:	c7 04 24 88 27 01 00 	movl   $0x12788,(%esp)
   11647:	e8 64 ef ff ff       	call   105b0 <printk>
   1164c:	83 c4 10             	add    $0x10,%esp
   1164f:	eb fe                	jmp    1164f <alignment_check_routine+0x1f>
   11651:	8d b4 26 00 00 00 00 	lea    0x0(%esi,%eiz,1),%esi
   11658:	8d b4 26 00 00 00 00 	lea    0x0(%esi,%eiz,1),%esi
   1165f:	90                   	nop

00011660 <set_handlers>:
   11660:	55                   	push   %ebp
   11661:	89 e5                	mov    %esp,%ebp
   11663:	83 ec 0c             	sub    $0xc,%esp
   11666:	6a 00                	push   $0x0
   11668:	68 9a 17 01 00       	push   $0x1179a
   1166d:	6a 00                	push   $0x0
   1166f:	e8 dc ea ff ff       	call   10150 <setInterruptHandler>
   11674:	83 c4 0c             	add    $0xc,%esp
   11677:	6a 00                	push   $0x0
   11679:	68 c3 17 01 00       	push   $0x117c3
   1167e:	6a 01                	push   $0x1
   11680:	e8 cb ea ff ff       	call   10150 <setInterruptHandler>
   11685:	83 c4 0c             	add    $0xc,%esp
   11688:	6a 00                	push   $0x0
   1168a:	68 ec 17 01 00       	push   $0x117ec
   1168f:	6a 02                	push   $0x2
   11691:	e8 ba ea ff ff       	call   10150 <setInterruptHandler>
   11696:	83 c4 0c             	add    $0xc,%esp
   11699:	6a 00                	push   $0x0
   1169b:	68 15 18 01 00       	push   $0x11815
   116a0:	6a 03                	push   $0x3
   116a2:	e8 a9 ea ff ff       	call   10150 <setInterruptHandler>
   116a7:	83 c4 0c             	add    $0xc,%esp
   116aa:	6a 00                	push   $0x0
   116ac:	68 3e 18 01 00       	push   $0x1183e
   116b1:	6a 04                	push   $0x4
   116b3:	e8 98 ea ff ff       	call   10150 <setInterruptHandler>
   116b8:	83 c4 0c             	add    $0xc,%esp
   116bb:	6a 00                	push   $0x0
   116bd:	68 67 18 01 00       	push   $0x11867
   116c2:	6a 05                	push   $0x5
   116c4:	e8 87 ea ff ff       	call   10150 <setInterruptHandler>
   116c9:	83 c4 0c             	add    $0xc,%esp
   116cc:	6a 00                	push   $0x0
   116ce:	68 90 18 01 00       	push   $0x11890
   116d3:	6a 06                	push   $0x6
   116d5:	e8 76 ea ff ff       	call   10150 <setInterruptHandler>
   116da:	83 c4 0c             	add    $0xc,%esp
   116dd:	6a 00                	push   $0x0
   116df:	68 b9 18 01 00       	push   $0x118b9
   116e4:	6a 07                	push   $0x7
   116e6:	e8 65 ea ff ff       	call   10150 <setInterruptHandler>
   116eb:	83 c4 0c             	add    $0xc,%esp
   116ee:	6a 00                	push   $0x0
   116f0:	68 e2 18 01 00       	push   $0x118e2
   116f5:	6a 08                	push   $0x8
   116f7:	e8 54 ea ff ff       	call   10150 <setInterruptHandler>
   116fc:	83 c4 0c             	add    $0xc,%esp
   116ff:	6a 00                	push   $0x0
   11701:	68 0b 19 01 00       	push   $0x1190b
   11706:	6a 09                	push   $0x9
   11708:	e8 43 ea ff ff       	call   10150 <setInterruptHandler>
   1170d:	83 c4 0c             	add    $0xc,%esp
   11710:	6a 00                	push   $0x0
   11712:	68 34 19 01 00       	push   $0x11934
   11717:	6a 0a                	push   $0xa
   11719:	e8 32 ea ff ff       	call   10150 <setInterruptHandler>
   1171e:	83 c4 0c             	add    $0xc,%esp
   11721:	6a 00                	push   $0x0
   11723:	68 5d 19 01 00       	push   $0x1195d
   11728:	6a 0b                	push   $0xb
   1172a:	e8 21 ea ff ff       	call   10150 <setInterruptHandler>
   1172f:	83 c4 0c             	add    $0xc,%esp
   11732:	6a 00                	push   $0x0
   11734:	68 86 19 01 00       	push   $0x11986
   11739:	6a 0c                	push   $0xc
   1173b:	e8 10 ea ff ff       	call   10150 <setInterruptHandler>
   11740:	83 c4 0c             	add    $0xc,%esp
   11743:	6a 00                	push   $0x0
   11745:	68 af 19 01 00       	push   $0x119af
   1174a:	6a 0d                	push   $0xd
   1174c:	e8 ff e9 ff ff       	call   10150 <setInterruptHandler>
   11751:	83 c4 0c             	add    $0xc,%esp
   11754:	6a 00                	push   $0x0
   11756:	68 d8 19 01 00       	push   $0x119d8
   1175b:	6a 0e                	push   $0xe
   1175d:	e8 ee e9 ff ff       	call   10150 <setInterruptHandler>
   11762:	83 c4 0c             	add    $0xc,%esp
   11765:	6a 00                	push   $0x0
   11767:	68 01 1a 01 00       	push   $0x11a01
   1176c:	6a 0f                	push   $0xf
   1176e:	e8 dd e9 ff ff       	call   10150 <setInterruptHandler>
   11773:	83 c4 0c             	add    $0xc,%esp
   11776:	6a 00                	push   $0x0
   11778:	68 2a 1a 01 00       	push   $0x11a2a
   1177d:	6a 10                	push   $0x10
   1177f:	e8 cc e9 ff ff       	call   10150 <setInterruptHandler>
   11784:	83 c4 0c             	add    $0xc,%esp
   11787:	6a 00                	push   $0x0
   11789:	68 53 1a 01 00       	push   $0x11a53
   1178e:	6a 11                	push   $0x11
   11790:	e8 bb e9 ff ff       	call   10150 <setInterruptHandler>
   11795:	83 c4 10             	add    $0x10,%esp
   11798:	c9                   	leave  
   11799:	c3                   	ret    

0001179a <divide_error_handler>:
   1179a:	0f a8                	push   %gs
   1179c:	0f a0                	push   %fs
   1179e:	06                   	push   %es
   1179f:	1e                   	push   %ds
   117a0:	50                   	push   %eax
   117a1:	55                   	push   %ebp
   117a2:	57                   	push   %edi
   117a3:	56                   	push   %esi
   117a4:	53                   	push   %ebx
   117a5:	51                   	push   %ecx
   117a6:	52                   	push   %edx
   117a7:	ba 18 00 00 00       	mov    $0x18,%edx
   117ac:	8e da                	mov    %edx,%ds
   117ae:	8e c2                	mov    %edx,%es
   117b0:	e8 4b fb ff ff       	call   11300 <divide_error_routine>
   117b5:	5b                   	pop    %ebx
   117b6:	59                   	pop    %ecx
   117b7:	5a                   	pop    %edx
   117b8:	5e                   	pop    %esi
   117b9:	5f                   	pop    %edi
   117ba:	5d                   	pop    %ebp
   117bb:	58                   	pop    %eax
   117bc:	1f                   	pop    %ds
   117bd:	07                   	pop    %es
   117be:	0f a1                	pop    %fs
   117c0:	0f a9                	pop    %gs
   117c2:	cf                   	iret   

000117c3 <debug_handler>:
   117c3:	0f a8                	push   %gs
   117c5:	0f a0                	push   %fs
   117c7:	06                   	push   %es
   117c8:	1e                   	push   %ds
   117c9:	50                   	push   %eax
   117ca:	55                   	push   %ebp
   117cb:	57                   	push   %edi
   117cc:	56                   	push   %esi
   117cd:	53                   	push   %ebx
   117ce:	51                   	push   %ecx
   117cf:	52                   	push   %edx
   117d0:	ba 18 00 00 00       	mov    $0x18,%edx
   117d5:	8e da                	mov    %edx,%ds
   117d7:	8e c2                	mov    %edx,%es
   117d9:	e8 52 fb ff ff       	call   11330 <debug_routine>
   117de:	5b                   	pop    %ebx
   117df:	59                   	pop    %ecx
   117e0:	5a                   	pop    %edx
   117e1:	5e                   	pop    %esi
   117e2:	5f                   	pop    %edi
   117e3:	5d                   	pop    %ebp
   117e4:	58                   	pop    %eax
   117e5:	1f                   	pop    %ds
   117e6:	07                   	pop    %es
   117e7:	0f a1                	pop    %fs
   117e9:	0f a9                	pop    %gs
   117eb:	cf                   	iret   

000117ec <nm1_handler>:
   117ec:	0f a8                	push   %gs
   117ee:	0f a0                	push   %fs
   117f0:	06                   	push   %es
   117f1:	1e                   	push   %ds
   117f2:	50                   	push   %eax
   117f3:	55                   	push   %ebp
   117f4:	57                   	push   %edi
   117f5:	56                   	push   %esi
   117f6:	53                   	push   %ebx
   117f7:	51                   	push   %ecx
   117f8:	52                   	push   %edx
   117f9:	ba 18 00 00 00       	mov    $0x18,%edx
   117fe:	8e da                	mov    %edx,%ds
   11800:	8e c2                	mov    %edx,%es
   11802:	e8 59 fb ff ff       	call   11360 <nm1_routine>
   11807:	5b                   	pop    %ebx
   11808:	59                   	pop    %ecx
   11809:	5a                   	pop    %edx
   1180a:	5e                   	pop    %esi
   1180b:	5f                   	pop    %edi
   1180c:	5d                   	pop    %ebp
   1180d:	58                   	pop    %eax
   1180e:	1f                   	pop    %ds
   1180f:	07                   	pop    %es
   11810:	0f a1                	pop    %fs
   11812:	0f a9                	pop    %gs
   11814:	cf                   	iret   

00011815 <breakpoint_handler>:
   11815:	0f a8                	push   %gs
   11817:	0f a0                	push   %fs
   11819:	06                   	push   %es
   1181a:	1e                   	push   %ds
   1181b:	50                   	push   %eax
   1181c:	55                   	push   %ebp
   1181d:	57                   	push   %edi
   1181e:	56                   	push   %esi
   1181f:	53                   	push   %ebx
   11820:	51                   	push   %ecx
   11821:	52                   	push   %edx
   11822:	ba 18 00 00 00       	mov    $0x18,%edx
   11827:	8e da                	mov    %edx,%ds
   11829:	8e c2                	mov    %edx,%es
   1182b:	e8 60 fb ff ff       	call   11390 <breakpoint_routine>
   11830:	5b                   	pop    %ebx
   11831:	59                   	pop    %ecx
   11832:	5a                   	pop    %edx
   11833:	5e                   	pop    %esi
   11834:	5f                   	pop    %edi
   11835:	5d                   	pop    %ebp
   11836:	58                   	pop    %eax
   11837:	1f                   	pop    %ds
   11838:	07                   	pop    %es
   11839:	0f a1                	pop    %fs
   1183b:	0f a9                	pop    %gs
   1183d:	cf                   	iret   

0001183e <overflow_handler>:
   1183e:	0f a8                	push   %gs
   11840:	0f a0                	push   %fs
   11842:	06                   	push   %es
   11843:	1e                   	push   %ds
   11844:	50                   	push   %eax
   11845:	55                   	push   %ebp
   11846:	57                   	push   %edi
   11847:	56                   	push   %esi
   11848:	53                   	push   %ebx
   11849:	51                   	push   %ecx
   1184a:	52                   	push   %edx
   1184b:	ba 18 00 00 00       	mov    $0x18,%edx
   11850:	8e da                	mov    %edx,%ds
   11852:	8e c2                	mov    %edx,%es
   11854:	e8 67 fb ff ff       	call   113c0 <overflow_routine>
   11859:	5b                   	pop    %ebx
   1185a:	59                   	pop    %ecx
   1185b:	5a                   	pop    %edx
   1185c:	5e                   	pop    %esi
   1185d:	5f                   	pop    %edi
   1185e:	5d                   	pop    %ebp
   1185f:	58                   	pop    %eax
   11860:	1f                   	pop    %ds
   11861:	07                   	pop    %es
   11862:	0f a1                	pop    %fs
   11864:	0f a9                	pop    %gs
   11866:	cf                   	iret   

00011867 <bounds_check_handler>:
   11867:	0f a8                	push   %gs
   11869:	0f a0                	push   %fs
   1186b:	06                   	push   %es
   1186c:	1e                   	push   %ds
   1186d:	50                   	push   %eax
   1186e:	55                   	push   %ebp
   1186f:	57                   	push   %edi
   11870:	56                   	push   %esi
   11871:	53                   	push   %ebx
   11872:	51                   	push   %ecx
   11873:	52                   	push   %edx
   11874:	ba 18 00 00 00       	mov    $0x18,%edx
   11879:	8e da                	mov    %edx,%ds
   1187b:	8e c2                	mov    %edx,%es
   1187d:	e8 6e fb ff ff       	call   113f0 <bounds_check_routine>
   11882:	5b                   	pop    %ebx
   11883:	59                   	pop    %ecx
   11884:	5a                   	pop    %edx
   11885:	5e                   	pop    %esi
   11886:	5f                   	pop    %edi
   11887:	5d                   	pop    %ebp
   11888:	58                   	pop    %eax
   11889:	1f                   	pop    %ds
   1188a:	07                   	pop    %es
   1188b:	0f a1                	pop    %fs
   1188d:	0f a9                	pop    %gs
   1188f:	cf                   	iret   

00011890 <invalid_opcode_handler>:
   11890:	0f a8                	push   %gs
   11892:	0f a0                	push   %fs
   11894:	06                   	push   %es
   11895:	1e                   	push   %ds
   11896:	50                   	push   %eax
   11897:	55                   	push   %ebp
   11898:	57                   	push   %edi
   11899:	56                   	push   %esi
   1189a:	53                   	push   %ebx
   1189b:	51                   	push   %ecx
   1189c:	52                   	push   %edx
   1189d:	ba 18 00 00 00       	mov    $0x18,%edx
   118a2:	8e da                	mov    %edx,%ds
   118a4:	8e c2                	mov    %edx,%es
   118a6:	e8 75 fb ff ff       	call   11420 <invalid_opcode_routine>
   118ab:	5b                   	pop    %ebx
   118ac:	59                   	pop    %ecx
   118ad:	5a                   	pop    %edx
   118ae:	5e                   	pop    %esi
   118af:	5f                   	pop    %edi
   118b0:	5d                   	pop    %ebp
   118b1:	58                   	pop    %eax
   118b2:	1f                   	pop    %ds
   118b3:	07                   	pop    %es
   118b4:	0f a1                	pop    %fs
   118b6:	0f a9                	pop    %gs
   118b8:	cf                   	iret   

000118b9 <device_not_available_handler>:
   118b9:	0f a8                	push   %gs
   118bb:	0f a0                	push   %fs
   118bd:	06                   	push   %es
   118be:	1e                   	push   %ds
   118bf:	50                   	push   %eax
   118c0:	55                   	push   %ebp
   118c1:	57                   	push   %edi
   118c2:	56                   	push   %esi
   118c3:	53                   	push   %ebx
   118c4:	51                   	push   %ecx
   118c5:	52                   	push   %edx
   118c6:	ba 18 00 00 00       	mov    $0x18,%edx
   118cb:	8e da                	mov    %edx,%ds
   118cd:	8e c2                	mov    %edx,%es
   118cf:	e8 7c fb ff ff       	call   11450 <device_not_available_routine>
   118d4:	5b                   	pop    %ebx
   118d5:	59                   	pop    %ecx
   118d6:	5a                   	pop    %edx
   118d7:	5e                   	pop    %esi
   118d8:	5f                   	pop    %edi
   118d9:	5d                   	pop    %ebp
   118da:	58                   	pop    %eax
   118db:	1f                   	pop    %ds
   118dc:	07                   	pop    %es
   118dd:	0f a1                	pop    %fs
   118df:	0f a9                	pop    %gs
   118e1:	cf                   	iret   

000118e2 <double_fault_handler>:
   118e2:	0f a8                	push   %gs
   118e4:	0f a0                	push   %fs
   118e6:	06                   	push   %es
   118e7:	1e                   	push   %ds
   118e8:	50                   	push   %eax
   118e9:	55                   	push   %ebp
   118ea:	57                   	push   %edi
   118eb:	56                   	push   %esi
   118ec:	53                   	push   %ebx
   118ed:	51                   	push   %ecx
   118ee:	52                   	push   %edx
   118ef:	ba 18 00 00 00       	mov    $0x18,%edx
   118f4:	8e da                	mov    %edx,%ds
   118f6:	8e c2                	mov    %edx,%es
   118f8:	e8 83 fb ff ff       	call   11480 <double_fault_routine>
   118fd:	5b                   	pop    %ebx
   118fe:	59                   	pop    %ecx
   118ff:	5a                   	pop    %edx
   11900:	5e                   	pop    %esi
   11901:	5f                   	pop    %edi
   11902:	5d                   	pop    %ebp
   11903:	58                   	pop    %eax
   11904:	1f                   	pop    %ds
   11905:	07                   	pop    %es
   11906:	0f a1                	pop    %fs
   11908:	0f a9                	pop    %gs
   1190a:	cf                   	iret   

0001190b <coprocessor_segment_overrun_handler>:
   1190b:	0f a8                	push   %gs
   1190d:	0f a0                	push   %fs
   1190f:	06                   	push   %es
   11910:	1e                   	push   %ds
   11911:	50                   	push   %eax
   11912:	55                   	push   %ebp
   11913:	57                   	push   %edi
   11914:	56                   	push   %esi
   11915:	53                   	push   %ebx
   11916:	51                   	push   %ecx
   11917:	52                   	push   %edx
   11918:	ba 18 00 00 00       	mov    $0x18,%edx
   1191d:	8e da                	mov    %edx,%ds
   1191f:	8e c2                	mov    %edx,%es
   11921:	e8 8a fb ff ff       	call   114b0 <coprocessor_segment_overrun_routine>
   11926:	5b                   	pop    %ebx
   11927:	59                   	pop    %ecx
   11928:	5a                   	pop    %edx
   11929:	5e                   	pop    %esi
   1192a:	5f                   	pop    %edi
   1192b:	5d                   	pop    %ebp
   1192c:	58                   	pop    %eax
   1192d:	1f                   	pop    %ds
   1192e:	07                   	pop    %es
   1192f:	0f a1                	pop    %fs
   11931:	0f a9                	pop    %gs
   11933:	cf                   	iret   

00011934 <invalid_tss_handler>:
   11934:	0f a8                	push   %gs
   11936:	0f a0                	push   %fs
   11938:	06                   	push   %es
   11939:	1e                   	push   %ds
   1193a:	50                   	push   %eax
   1193b:	55                   	push   %ebp
   1193c:	57                   	push   %edi
   1193d:	56                   	push   %esi
   1193e:	53                   	push   %ebx
   1193f:	51                   	push   %ecx
   11940:	52                   	push   %edx
   11941:	ba 18 00 00 00       	mov    $0x18,%edx
   11946:	8e da                	mov    %edx,%ds
   11948:	8e c2                	mov    %edx,%es
   1194a:	e8 91 fb ff ff       	call   114e0 <invalid_tss_routine>
   1194f:	5b                   	pop    %ebx
   11950:	59                   	pop    %ecx
   11951:	5a                   	pop    %edx
   11952:	5e                   	pop    %esi
   11953:	5f                   	pop    %edi
   11954:	5d                   	pop    %ebp
   11955:	58                   	pop    %eax
   11956:	1f                   	pop    %ds
   11957:	07                   	pop    %es
   11958:	0f a1                	pop    %fs
   1195a:	0f a9                	pop    %gs
   1195c:	cf                   	iret   

0001195d <segment_not_present_handler>:
   1195d:	0f a8                	push   %gs
   1195f:	0f a0                	push   %fs
   11961:	06                   	push   %es
   11962:	1e                   	push   %ds
   11963:	50                   	push   %eax
   11964:	55                   	push   %ebp
   11965:	57                   	push   %edi
   11966:	56                   	push   %esi
   11967:	53                   	push   %ebx
   11968:	51                   	push   %ecx
   11969:	52                   	push   %edx
   1196a:	ba 18 00 00 00       	mov    $0x18,%edx
   1196f:	8e da                	mov    %edx,%ds
   11971:	8e c2                	mov    %edx,%es
   11973:	e8 98 fb ff ff       	call   11510 <segment_not_present_routine>
   11978:	5b                   	pop    %ebx
   11979:	59                   	pop    %ecx
   1197a:	5a                   	pop    %edx
   1197b:	5e                   	pop    %esi
   1197c:	5f                   	pop    %edi
   1197d:	5d                   	pop    %ebp
   1197e:	58                   	pop    %eax
   1197f:	1f                   	pop    %ds
   11980:	07                   	pop    %es
   11981:	0f a1                	pop    %fs
   11983:	0f a9                	pop    %gs
   11985:	cf                   	iret   

00011986 <stack_exception_handler>:
   11986:	0f a8                	push   %gs
   11988:	0f a0                	push   %fs
   1198a:	06                   	push   %es
   1198b:	1e                   	push   %ds
   1198c:	50                   	push   %eax
   1198d:	55                   	push   %ebp
   1198e:	57                   	push   %edi
   1198f:	56                   	push   %esi
   11990:	53                   	push   %ebx
   11991:	51                   	push   %ecx
   11992:	52                   	push   %edx
   11993:	ba 18 00 00 00       	mov    $0x18,%edx
   11998:	8e da                	mov    %edx,%ds
   1199a:	8e c2                	mov    %edx,%es
   1199c:	e8 9f fb ff ff       	call   11540 <stack_exception_routine>
   119a1:	5b                   	pop    %ebx
   119a2:	59                   	pop    %ecx
   119a3:	5a                   	pop    %edx
   119a4:	5e                   	pop    %esi
   119a5:	5f                   	pop    %edi
   119a6:	5d                   	pop    %ebp
   119a7:	58                   	pop    %eax
   119a8:	1f                   	pop    %ds
   119a9:	07                   	pop    %es
   119aa:	0f a1                	pop    %fs
   119ac:	0f a9                	pop    %gs
   119ae:	cf                   	iret   

000119af <general_protection_handler>:
   119af:	0f a8                	push   %gs
   119b1:	0f a0                	push   %fs
   119b3:	06                   	push   %es
   119b4:	1e                   	push   %ds
   119b5:	50                   	push   %eax
   119b6:	55                   	push   %ebp
   119b7:	57                   	push   %edi
   119b8:	56                   	push   %esi
   119b9:	53                   	push   %ebx
   119ba:	51                   	push   %ecx
   119bb:	52                   	push   %edx
   119bc:	ba 18 00 00 00       	mov    $0x18,%edx
   119c1:	8e da                	mov    %edx,%ds
   119c3:	8e c2                	mov    %edx,%es
   119c5:	e8 a6 fb ff ff       	call   11570 <general_protection_routine>
   119ca:	5b                   	pop    %ebx
   119cb:	59                   	pop    %ecx
   119cc:	5a                   	pop    %edx
   119cd:	5e                   	pop    %esi
   119ce:	5f                   	pop    %edi
   119cf:	5d                   	pop    %ebp
   119d0:	58                   	pop    %eax
   119d1:	1f                   	pop    %ds
   119d2:	07                   	pop    %es
   119d3:	0f a1                	pop    %fs
   119d5:	0f a9                	pop    %gs
   119d7:	cf                   	iret   

000119d8 <page_fault_handler>:
   119d8:	0f a8                	push   %gs
   119da:	0f a0                	push   %fs
   119dc:	06                   	push   %es
   119dd:	1e                   	push   %ds
   119de:	50                   	push   %eax
   119df:	55                   	push   %ebp
   119e0:	57                   	push   %edi
   119e1:	56                   	push   %esi
   119e2:	53                   	push   %ebx
   119e3:	51                   	push   %ecx
   119e4:	52                   	push   %edx
   119e5:	ba 18 00 00 00       	mov    $0x18,%edx
   119ea:	8e da                	mov    %edx,%ds
   119ec:	8e c2                	mov    %edx,%es
   119ee:	e8 ad fb ff ff       	call   115a0 <page_fault_routine>
   119f3:	5b                   	pop    %ebx
   119f4:	59                   	pop    %ecx
   119f5:	5a                   	pop    %edx
   119f6:	5e                   	pop    %esi
   119f7:	5f                   	pop    %edi
   119f8:	5d                   	pop    %ebp
   119f9:	58                   	pop    %eax
   119fa:	1f                   	pop    %ds
   119fb:	07                   	pop    %es
   119fc:	0f a1                	pop    %fs
   119fe:	0f a9                	pop    %gs
   11a00:	cf                   	iret   

00011a01 <intel_reserved_handler>:
   11a01:	0f a8                	push   %gs
   11a03:	0f a0                	push   %fs
   11a05:	06                   	push   %es
   11a06:	1e                   	push   %ds
   11a07:	50                   	push   %eax
   11a08:	55                   	push   %ebp
   11a09:	57                   	push   %edi
   11a0a:	56                   	push   %esi
   11a0b:	53                   	push   %ebx
   11a0c:	51                   	push   %ecx
   11a0d:	52                   	push   %edx
   11a0e:	ba 18 00 00 00       	mov    $0x18,%edx
   11a13:	8e da                	mov    %edx,%ds
   11a15:	8e c2                	mov    %edx,%es
   11a17:	e8 b4 fb ff ff       	call   115d0 <intel_reserved_routine>
   11a1c:	5b                   	pop    %ebx
   11a1d:	59                   	pop    %ecx
   11a1e:	5a                   	pop    %edx
   11a1f:	5e                   	pop    %esi
   11a20:	5f                   	pop    %edi
   11a21:	5d                   	pop    %ebp
   11a22:	58                   	pop    %eax
   11a23:	1f                   	pop    %ds
   11a24:	07                   	pop    %es
   11a25:	0f a1                	pop    %fs
   11a27:	0f a9                	pop    %gs
   11a29:	cf                   	iret   

00011a2a <floating_point_error_handler>:
   11a2a:	0f a8                	push   %gs
   11a2c:	0f a0                	push   %fs
   11a2e:	06                   	push   %es
   11a2f:	1e                   	push   %ds
   11a30:	50                   	push   %eax
   11a31:	55                   	push   %ebp
   11a32:	57                   	push   %edi
   11a33:	56                   	push   %esi
   11a34:	53                   	push   %ebx
   11a35:	51                   	push   %ecx
   11a36:	52                   	push   %edx
   11a37:	ba 18 00 00 00       	mov    $0x18,%edx
   11a3c:	8e da                	mov    %edx,%ds
   11a3e:	8e c2                	mov    %edx,%es
   11a40:	e8 bb fb ff ff       	call   11600 <floating_point_error_routine>
   11a45:	5b                   	pop    %ebx
   11a46:	59                   	pop    %ecx
   11a47:	5a                   	pop    %edx
   11a48:	5e                   	pop    %esi
   11a49:	5f                   	pop    %edi
   11a4a:	5d                   	pop    %ebp
   11a4b:	58                   	pop    %eax
   11a4c:	1f                   	pop    %ds
   11a4d:	07                   	pop    %es
   11a4e:	0f a1                	pop    %fs
   11a50:	0f a9                	pop    %gs
   11a52:	cf                   	iret   

00011a53 <alignment_check_handler>:
   11a53:	0f a8                	push   %gs
   11a55:	0f a0                	push   %fs
   11a57:	06                   	push   %es
   11a58:	1e                   	push   %ds
   11a59:	50                   	push   %eax
   11a5a:	55                   	push   %ebp
   11a5b:	57                   	push   %edi
   11a5c:	56                   	push   %esi
   11a5d:	53                   	push   %ebx
   11a5e:	51                   	push   %ecx
   11a5f:	52                   	push   %edx
   11a60:	ba 18 00 00 00       	mov    $0x18,%edx
   11a65:	8e da                	mov    %edx,%ds
   11a67:	8e c2                	mov    %edx,%es
   11a69:	e8 c2 fb ff ff       	call   11630 <alignment_check_routine>
   11a6e:	5b                   	pop    %ebx
   11a6f:	59                   	pop    %ecx
   11a70:	5a                   	pop    %edx
   11a71:	5e                   	pop    %esi
   11a72:	5f                   	pop    %edi
   11a73:	5d                   	pop    %ebp
   11a74:	58                   	pop    %eax
   11a75:	1f                   	pop    %ds
   11a76:	07                   	pop    %es
   11a77:	0f a1                	pop    %fs
   11a79:	0f a9                	pop    %gs
   11a7b:	cf                   	iret   
   11a7c:	66 90                	xchg   %ax,%ax
   11a7e:	66 90                	xchg   %ax,%ax

00011a80 <monoprocess_init_addr_space>:
   11a80:	55                   	push   %ebp
   11a81:	89 e5                	mov    %esp,%ebp
   11a83:	83 ec 14             	sub    $0x14,%esp
   11a86:	68 00 40 01 00       	push   $0x14000
   11a8b:	e8 80 ee ff ff       	call   10910 <set_user_pages>
   11a90:	c7 04 24 00 40 01 00 	movl   $0x14000,(%esp)
   11a97:	e8 84 eb ff ff       	call   10620 <get_DIR>
   11a9c:	89 04 24             	mov    %eax,(%esp)
   11a9f:	e8 2c ef ff ff       	call   109d0 <set_cr3>
   11aa4:	83 c4 10             	add    $0x10,%esp
   11aa7:	c9                   	leave  
   11aa8:	c3                   	ret    
